Certificate:
    Data:
        Version: 3 (0x2)
        Serial Number:
            26:a7:a8:b2:e7:31:cb:7b:93:27:a5:e1:be:56:69:1e:e3:58:d1:c0
        Signature Algorithm: sha1WithRSAEncryption
        Issuer: C=AU, O=Dodgy Brothers, CN=Dodgy CA
        Validity
            Not Before: Nov 27 14:08:15 2023 GMT
            Not After : Nov 26 14:08:15 2024 GMT
        Subject: C=AU, O=Dodgy Brothers, CN=Brother 1, CN=lastupdate_generalizedtime
        Subject Public Key Info:
            Public Key Algorithm: rsaEncryption
                Public-Key: (2048 bit)
                Modulus:
                    00:be:95:86:fa:71:4c:6a:ea:51:98:50:4b:99:a1:
                    2c:66:15:f3:60:f3:e1:ff:69:fb:ce:48:01:1d:fe:
                    e1:2c:38:b0:e3:bd:8f:4b:48:a7:7e:3a:c6:73:e3:
                    ab:bf:e1:da:6e:96:f5:fe:c3:e4:b4:a8:ad:bc:56:
                    34:d4:96:25:74:27:c3:10:db:35:10:25:1c:8e:4b:
                    81:9b:fb:42:04:7c:6f:3d:e2:38:6c:0e:e4:2e:8e:
                    2a:18:6d:30:cd:67:2a:23:6b:37:cf:05:9f:cc:b7:
                    59:58:7f:ba:c4:0a:3f:8c:a4:ad:cb:98:9c:c0:f2:
                    8f:69:67:0f:c1:4e:33:cf:fc:85:5e:bb:5e:cf:93:
                    b0:cf:d9:f4:52:79:87:b1:f8:4d:15:68:65:d5:b7:
                    19:08:63:7f:5e:b1:34:ad:05:8f:5a:f0:e4:e1:8f:
                    25:f2:5c:5c:61:95:b0:56:2d:31:2b:08:65:79:e5:
                    b1:3b:9d:3e:b9:52:4b:ac:5d:c4:58:66:85:8d:81:
                    b3:04:28:f4:3f:2f:ac:92:01:62:d5:fd:8e:0b:da:
                    02:0c:7a:c7:6e:09:1c:ac:1c:b2:4c:d7:54:b8:26:
                    33:b2:5f:14:f3:b1:f9:3d:62:4d:40:99:6b:b6:e7:
                    89:58:97:d6:d4:4d:ea:4b:68:52:f3:3c:a8:b1:35:
                    88:db
                Exponent: 65537 (0x10001)
        X509v3 extensions:
            X509v3 Subject Key Identifier: 
                A1:DF:33:C3:CF:3E:53:41:A7:68:44:CC:AA:19:E1:84:C9:0D:BC:C6
            X509v3 Authority Key Identifier: 
                keyid:B4:11:33:F1:D7:E2:5E:F7:53:9E:20:22:10:4F:86:06:BF:1F:C9:5E
                DirName:/C=AU/O=Dodgy Brothers/CN=Dodgy CA
                serial:70:20:12:AD:D7:02:86:09:61:94:1E:FA:4D:DA:BB:52:D4:B0:71:71
            X509v3 Basic Constraints: critical
                CA:TRUE, pathlen:1
            X509v3 Key Usage: 
                Certificate Sign, CRL Sign
            X509v3 Issuer Alternative Name: 
                <EMPTY>

    Signature Algorithm: sha1WithRSAEncryption
    Signature Value:
        7e:d6:91:31:0d:92:16:f0:57:e3:53:35:ad:a9:f3:6e:9b:cd:
        46:41:11:a5:c2:d8:71:9f:a8:7e:5a:e4:df:13:5e:b6:cb:9c:
        e3:fd:67:ce:e6:a0:52:e2:cb:55:ff:f7:b9:49:93:d2:58:cd:
        b1:2b:c7:1a:0b:08:f5:bd:af:ef:a1:ea:f2:46:37:88:5f:71:
        f9:60:b8:18:26:a6:5b:60:56:7c:7b:31:93:28:74:ce:39:c6:
        84:31:8d:c1:01:3b:f9:fc:76:ef:99:f2:1d:a2:38:c8:d0:28:
        35:9e:d0:9e:c5:a4:4d:79:a8:d0:39:75:bd:85:64:7a:4d:fb:
        5c:77:4c:87:1a:93:37:1b:65:47:2b:c8:96:c2:8e:b6:77:84:
        58:ba:9a:2c:86:d5:c8:2e:57:99:78:92:4f:0c:ce:ab:d5:f0:
        ab:a4:2c:64:80:b4:45:d7:67:0b:74:a1:db:2d:1b:79:ae:ab:
        65:ac:f7:89:48:88:6b:72:dc:a9:a9:6c:b4:16:7b:9a:ef:c2:
        75:cc:08:ce:4b:be:e4:4e:a7:6d:cc:8f:39:d4:22:22:9c:b8:
        28:93:b3:40:88:e3:c7:40:96:06:88:7b:2e:6f:ba:bb:a5:17:
        77:9f:bc:17:85:61:5f:52:a9:a0:00:4e:38:6a:e4:8e:00:80:
        90:58:f1:b2
-----BEGIN CERTIFICATE-----
MIID6zCCAtOgAwIBAgIUJqeosucxy3uTJ6XhvlZpHuNY0cAwDQYJKoZIhvcNAQEF
BQAwOTELMAkGA1UEBhMCQVUxFzAVBgNVBAoMDkRvZGd5IEJyb3RoZXJzMREwDwYD
VQQDDAhEb2RneSBDQTAeFw0yMzExMjcxNDA4MTVaFw0yNDExMjYxNDA4MTVaMF8x
CzAJBgNVBAYTAkFVMRcwFQYDVQQKDA5Eb2RneSBCcm90aGVyczESMBAGA1UEAwwJ
QnJvdGhlciAxMSMwIQYDVQQDDBpsYXN0dXBkYXRlX2dlbmVyYWxpemVkdGltZTCC
ASIwDQYJKoZIhvcNAQEBBQADggEPADCCAQoCggEBAL6VhvpxTGrqUZhQS5mhLGYV
82Dz4f9p+85IAR3+4Sw4sOO9j0tIp346xnPjq7/h2m6W9f7D5LSorbxWNNSWJXQn
wxDbNRAlHI5LgZv7QgR8bz3iOGwO5C6OKhhtMM1nKiNrN88Fn8y3WVh/usQKP4yk
rcuYnMDyj2lnD8FOM8/8hV67Xs+TsM/Z9FJ5h7H4TRVoZdW3GQhjf16xNK0Fj1rw
5OGPJfJcXGGVsFYtMSsIZXnlsTudPrlSS6xdxFhmhY2BswQo9D8vrJIBYtX9jgva
Agx6x24JHKwcskzXVLgmM7JfFPOx+T1iTUCZa7bniViX1tRN6ktoUvM8qLE1iNsC
AwEAAaOBxDCBwTAdBgNVHQ4EFgQUod8zw88+U0GnaETMqhnhhMkNvMYwdAYDVR0j
BG0wa4AUtBEz8dfiXvdTniAiEE+GBr8fyV6hPaQ7MDkxCzAJBgNVBAYTAkFVMRcw
FQYDVQQKDA5Eb2RneSBCcm90aGVyczERMA8GA1UEAwwIRG9kZ3kgQ0GCFHAgEq3X
AoYJYZQe+k3au1LUsHFxMBIGA1UdEwEB/wQIMAYBAf8CAQEwCwYDVR0PBAQDAgEG
MAkGA1UdEgQCMAAwDQYJKoZIhvcNAQEFBQADggEBAH7WkTENkhbwV+NTNa2p826b
zUZBEaXC2HGfqH5a5N8TXrbLnOP9Z87moFLiy1X/97lJk9JYzbErxxoLCPW9r++h
6vJGN4hfcflguBgmpltgVnx7MZModM45xoQxjcEBO/n8du+Z8h2iOMjQKDWe0J7F
pE15qNA5db2FZHpN+1x3TIcakzcbZUcryJbCjrZ3hFi6miyG1cguV5l4kk8MzqvV
8KukLGSAtEXXZwt0odstG3muq2Ws94lIiGty3KmpbLQWe5rvwnXMCM5LvuROp23M
jznUIiKcuCiTs0CI48dAlgaIey5vurulF3efvBeFYV9SqaAATjhq5I4AgJBY8bI=
-----END CERTIFICATE-----
