Certificate:
    Data:
        Version: 3 (0x2)
        Serial Number:
            26:a7:a8:b2:e7:31:cb:7b:93:27:a5:e1:be:56:69:1e:e3:58:d1:ba
        Signature Algorithm: sha256WithRSAEncryption
        Issuer: C=AU, O=Dodgy Brothers, CN=Dodgy CA
        Validity
            Not Before: Nov 27 14:08:14 2023 GMT
            Not After : Nov 26 14:08:14 2024 GMT
        Subject: C=AU, O=Dodgy Brothers, CN=Brother 1, CN=Brother 2
        Subject Public Key Info:
            Public Key Algorithm: rsaEncryption
                Public-Key: (2048 bit)
                Modulus:
                    00:a8:ff:89:58:61:85:ae:de:db:2c:0f:d5:73:fb:
                    e2:b7:a8:1b:7a:75:60:2b:d4:7d:3c:73:76:b5:ae:
                    de:93:2f:7f:24:90:6d:c9:1c:f4:8a:38:cd:9f:a2:
                    80:16:56:cb:b4:2c:bb:93:e5:17:1f:ff:0d:c6:43:
                    fe:31:34:f8:28:d8:75:e9:a3:bb:88:82:ef:a3:72:
                    e2:53:62:05:45:4d:e0:31:97:ef:aa:9d:10:d2:58:
                    0d:9e:06:9e:32:bb:1b:08:56:5d:65:0f:3f:66:8e:
                    c2:36:a0:11:ff:c0:59:35:fd:49:1c:dd:1c:42:33:
                    06:78:ae:04:38:23:e5:e7:75:67:d3:94:ad:5a:a9:
                    40:1f:ac:59:10:f5:0c:c1:64:ad:4a:c4:c6:35:53:
                    b3:96:6a:82:1b:15:8b:d1:99:ab:e4:9e:6f:94:aa:
                    d2:96:e5:57:fb:8c:91:64:8a:3c:24:16:c6:d2:19:
                    be:82:60:13:3b:62:b0:ed:3e:1d:b3:ca:f9:6b:df:
                    31:b9:7a:9e:4b:47:68:a7:29:c7:3f:4a:e2:22:27:
                    b4:ef:90:63:d7:ef:d0:72:49:3e:5b:ad:b9:1b:d4:
                    2b:6f:86:68:dd:d5:73:12:b8:43:c9:dc:41:0f:a2:
                    a3:46:4f:8b:67:88:84:0f:61:fe:79:34:1f:4a:89:
                    1f:b7
                Exponent: 65537 (0x10001)
        X509v3 extensions:
            X509v3 Basic Constraints: 
                CA:FALSE
            X509v3 Subject Key Identifier: 
                E7:9B:E2:2A:AD:8A:6C:3A:CB:76:51:E5:8E:07:98:22:97:E1:73:A2
            X509v3 Authority Key Identifier: 
                B4:11:33:F1:D7:E2:5E:F7:53:9E:20:22:10:4F:86:06:BF:1F:C9:5E
    Signature Algorithm: sha256WithRSAEncryption
    Signature Value:
        92:32:15:cf:ff:74:72:bb:50:14:98:8b:d9:72:04:33:5a:06:
        0e:5f:e8:4c:a5:27:d6:b8:04:c9:d1:6d:54:bd:31:1d:88:78:
        19:76:d0:1f:7d:e3:02:86:95:7e:10:90:08:15:25:be:c5:36:
        b7:bc:71:53:ee:af:b8:11:57:64:a5:97:56:31:a0:e7:87:4f:
        ca:70:3c:c8:2d:66:a2:d6:e6:af:8b:69:30:81:98:56:f0:b5:
        3c:1f:cd:e0:74:5e:9e:2b:3a:05:50:74:b6:68:2e:b6:a7:5b:
        3b:74:fb:bb:ec:22:91:07:23:83:29:88:82:50:3e:08:0f:6d:
        51:05:9d:40:78:41:b9:b1:bb:7b:44:73:47:66:6a:40:d2:80:
        d1:d5:69:4a:c6:bf:ce:7d:c0:7e:a0:18:82:d2:41:db:e0:8b:
        a1:8b:10:80:00:1d:fe:3b:f7:d7:b9:67:ae:d4:03:d9:1b:a8:
        b5:c3:4e:f5:68:60:74:73:74:f3:72:75:3e:fc:c1:f2:5f:d8:
        0f:84:46:64:49:1f:8c:cf:c6:03:64:92:f4:57:87:ac:22:af:
        b1:d9:72:38:c8:31:bc:ab:56:ed:a9:c8:3c:a1:96:68:52:8e:
        4e:af:a6:68:77:ee:c3:67:2b:f3:e9:a1:f4:9a:d3:6f:47:ac:
        50:a0:75:fb
-----BEGIN CERTIFICATE-----
MIIDYjCCAkqgAwIBAgIUJqeosucxy3uTJ6XhvlZpHuNY0bowDQYJKoZIhvcNAQEL
BQAwOTELMAkGA1UEBhMCQVUxFzAVBgNVBAoMDkRvZGd5IEJyb3RoZXJzMREwDwYD
VQQDDAhEb2RneSBDQTAeFw0yMzExMjcxNDA4MTRaFw0yNDExMjYxNDA4MTRaME4x
CzAJBgNVBAYTAkFVMRcwFQYDVQQKDA5Eb2RneSBCcm90aGVyczESMBAGA1UEAwwJ
QnJvdGhlciAxMRIwEAYDVQQDDAlCcm90aGVyIDIwggEiMA0GCSqGSIb3DQEBAQUA
A4IBDwAwggEKAoIBAQCo/4lYYYWu3tssD9Vz++K3qBt6dWAr1H08c3a1rt6TL38k
kG3JHPSKOM2fooAWVsu0LLuT5Rcf/w3GQ/4xNPgo2HXpo7uIgu+jcuJTYgVFTeAx
l++qnRDSWA2eBp4yuxsIVl1lDz9mjsI2oBH/wFk1/Ukc3RxCMwZ4rgQ4I+XndWfT
lK1aqUAfrFkQ9QzBZK1KxMY1U7OWaoIbFYvRmavknm+UqtKW5Vf7jJFkijwkFsbS
Gb6CYBM7YrDtPh2zyvlr3zG5ep5LR2inKcc/SuIiJ7TvkGPX79ByST5brbkb1Ctv
hmjd1XMSuEPJ3EEPoqNGT4tniIQPYf55NB9KiR+3AgMBAAGjTTBLMAkGA1UdEwQC
MAAwHQYDVR0OBBYEFOeb4iqtimw6y3ZR5Y4HmCKX4XOiMB8GA1UdIwQYMBaAFLQR
M/HX4l73U54gIhBPhga/H8leMA0GCSqGSIb3DQEBCwUAA4IBAQCSMhXP/3Ryu1AU
mIvZcgQzWgYOX+hMpSfWuATJ0W1UvTEdiHgZdtAffeMChpV+EJAIFSW+xTa3vHFT
7q+4EVdkpZdWMaDnh0/KcDzILWai1uavi2kwgZhW8LU8H83gdF6eKzoFUHS2aC62
p1s7dPu77CKRByODKYiCUD4ID21RBZ1AeEG5sbt7RHNHZmpA0oDR1WlKxr/OfcB+
oBiC0kHb4IuhixCAAB3+O/fXuWeu1APZG6i1w071aGB0c3TzcnU+/MHyX9gPhEZk
SR+Mz8YDZJL0V4esIq+x2XI4yDG8q1btqcg8oZZoUo5Or6Zod+7DZyvz6aH0mtNv
R6xQoHX7
-----END CERTIFICATE-----
