Certificate:
    Data:
        Version: 3 (0x2)
        Serial Number:
            26:a7:a8:b2:e7:31:cb:7b:93:27:a5:e1:be:56:69:1e:e3:58:d1:c4
        Signature Algorithm: sha1WithRSAEncryption
        Issuer: C=AU, O=Dodgy Brothers, CN=Dodgy CA
        Validity
            Not Before: Nov 27 14:08:15 2023 GMT
            Not After : Nov 26 14:08:15 2024 GMT
        Subject: C=AU, O=Dodgy Brothers, CN=Brother 1, CN=both_utctime
        Subject Public Key Info:
            Public Key Algorithm: rsaEncryption
                Public-Key: (2048 bit)
                Modulus:
                    00:be:95:86:fa:71:4c:6a:ea:51:98:50:4b:99:a1:
                    2c:66:15:f3:60:f3:e1:ff:69:fb:ce:48:01:1d:fe:
                    e1:2c:38:b0:e3:bd:8f:4b:48:a7:7e:3a:c6:73:e3:
                    ab:bf:e1:da:6e:96:f5:fe:c3:e4:b4:a8:ad:bc:56:
                    34:d4:96:25:74:27:c3:10:db:35:10:25:1c:8e:4b:
                    81:9b:fb:42:04:7c:6f:3d:e2:38:6c:0e:e4:2e:8e:
                    2a:18:6d:30:cd:67:2a:23:6b:37:cf:05:9f:cc:b7:
                    59:58:7f:ba:c4:0a:3f:8c:a4:ad:cb:98:9c:c0:f2:
                    8f:69:67:0f:c1:4e:33:cf:fc:85:5e:bb:5e:cf:93:
                    b0:cf:d9:f4:52:79:87:b1:f8:4d:15:68:65:d5:b7:
                    19:08:63:7f:5e:b1:34:ad:05:8f:5a:f0:e4:e1:8f:
                    25:f2:5c:5c:61:95:b0:56:2d:31:2b:08:65:79:e5:
                    b1:3b:9d:3e:b9:52:4b:ac:5d:c4:58:66:85:8d:81:
                    b3:04:28:f4:3f:2f:ac:92:01:62:d5:fd:8e:0b:da:
                    02:0c:7a:c7:6e:09:1c:ac:1c:b2:4c:d7:54:b8:26:
                    33:b2:5f:14:f3:b1:f9:3d:62:4d:40:99:6b:b6:e7:
                    89:58:97:d6:d4:4d:ea:4b:68:52:f3:3c:a8:b1:35:
                    88:db
                Exponent: 65537 (0x10001)
        X509v3 extensions:
            X509v3 Subject Key Identifier: 
                A1:DF:33:C3:CF:3E:53:41:A7:68:44:CC:AA:19:E1:84:C9:0D:BC:C6
            X509v3 Authority Key Identifier: 
                keyid:B4:11:33:F1:D7:E2:5E:F7:53:9E:20:22:10:4F:86:06:BF:1F:C9:5E
                DirName:/C=AU/O=Dodgy Brothers/CN=Dodgy CA
                serial:70:20:12:AD:D7:02:86:09:61:94:1E:FA:4D:DA:BB:52:D4:B0:71:71
            X509v3 Basic Constraints: critical
                CA:TRUE, pathlen:1
            X509v3 Key Usage: 
                Certificate Sign, CRL Sign
            X509v3 Issuer Alternative Name: 
                <EMPTY>

    Signature Algorithm: sha1WithRSAEncryption
    Signature Value:
        23:24:48:b8:ab:cd:6e:94:68:36:65:e2:f8:ce:8c:d4:61:5b:
        4c:3c:b6:f4:be:37:77:54:b5:2c:50:30:ed:c8:97:16:0c:7f:
        63:22:c6:b2:bf:23:56:40:a0:64:85:c7:25:3b:52:4c:35:8c:
        c1:30:25:68:2d:6c:ee:d1:58:30:d4:85:d0:29:3f:93:a7:8f:
        85:6f:cf:8a:4b:eb:40:6b:51:26:c1:e4:42:ef:22:36:d3:c4:
        c6:ad:06:c1:7e:ba:96:44:b6:f9:9a:57:ab:91:19:8c:b3:4e:
        ca:c2:8f:f3:f8:c6:be:de:3c:15:50:15:37:21:12:c1:34:d3:
        50:d5:3b:d0:d9:9d:98:54:54:af:7a:f2:4e:03:ba:d9:96:c5:
        62:8f:d9:67:98:06:58:13:b0:ff:77:93:d1:cc:fe:fe:30:20:
        55:05:27:55:4b:47:51:cd:c6:c6:21:7f:80:3a:9c:55:92:79:
        02:3b:0d:10:71:29:6b:c7:ca:c5:75:68:ca:0d:0d:2c:e2:11:
        10:60:22:87:c0:17:e2:29:3a:a5:82:33:74:da:ee:01:13:aa:
        38:e5:08:ca:2e:40:1d:ef:d4:27:31:f6:d5:3f:3a:ed:9d:7e:
        d9:14:32:7e:ad:bc:c6:ca:ca:aa:e5:4b:5b:c8:74:2a:21:f8:
        e2:39:74:0e
-----BEGIN CERTIFICATE-----
MIID3TCCAsWgAwIBAgIUJqeosucxy3uTJ6XhvlZpHuNY0cQwDQYJKoZIhvcNAQEF
BQAwOTELMAkGA1UEBhMCQVUxFzAVBgNVBAoMDkRvZGd5IEJyb3RoZXJzMREwDwYD
VQQDDAhEb2RneSBDQTAeFw0yMzExMjcxNDA4MTVaFw0yNDExMjYxNDA4MTVaMFEx
CzAJBgNVBAYTAkFVMRcwFQYDVQQKDA5Eb2RneSBCcm90aGVyczESMBAGA1UEAwwJ
QnJvdGhlciAxMRUwEwYDVQQDDAxib3RoX3V0Y3RpbWUwggEiMA0GCSqGSIb3DQEB
AQUAA4IBDwAwggEKAoIBAQC+lYb6cUxq6lGYUEuZoSxmFfNg8+H/afvOSAEd/uEs
OLDjvY9LSKd+OsZz46u/4dpulvX+w+S0qK28VjTUliV0J8MQ2zUQJRyOS4Gb+0IE
fG894jhsDuQujioYbTDNZyojazfPBZ/Mt1lYf7rECj+MpK3LmJzA8o9pZw/BTjPP
/IVeu17Pk7DP2fRSeYex+E0VaGXVtxkIY39esTStBY9a8OThjyXyXFxhlbBWLTEr
CGV55bE7nT65UkusXcRYZoWNgbMEKPQ/L6ySAWLV/Y4L2gIMesduCRysHLJM11S4
JjOyXxTzsfk9Yk1AmWu254lYl9bUTepLaFLzPKixNYjbAgMBAAGjgcQwgcEwHQYD
VR0OBBYEFKHfM8PPPlNBp2hEzKoZ4YTJDbzGMHQGA1UdIwRtMGuAFLQRM/HX4l73
U54gIhBPhga/H8leoT2kOzA5MQswCQYDVQQGEwJBVTEXMBUGA1UECgwORG9kZ3kg
QnJvdGhlcnMxETAPBgNVBAMMCERvZGd5IENBghRwIBKt1wKGCWGUHvpN2rtS1LBx
cTASBgNVHRMBAf8ECDAGAQH/AgEBMAsGA1UdDwQEAwIBBjAJBgNVHRIEAjAAMA0G
CSqGSIb3DQEBBQUAA4IBAQAjJEi4q81ulGg2ZeL4zozUYVtMPLb0vjd3VLUsUDDt
yJcWDH9jIsayvyNWQKBkhcclO1JMNYzBMCVoLWzu0Vgw1IXQKT+Tp4+Fb8+KS+tA
a1EmweRC7yI208TGrQbBfrqWRLb5mlerkRmMs07Kwo/z+Ma+3jwVUBU3IRLBNNNQ
1TvQ2Z2YVFSvevJOA7rZlsVij9lnmAZYE7D/d5PRzP7+MCBVBSdVS0dRzcbGIX+A
OpxVknkCOw0QcSlrx8rFdWjKDQ0s4hEQYCKHwBfiKTqlgjN02u4BE6o45QjKLkAd
79QnMfbVPzrtnX7ZFDJ+rbzGysqq5UtbyHQqIfjiOXQO
-----END CERTIFICATE-----
