Certificate:
    Data:
        Version: 3 (0x2)
        Serial Number:
            26:a7:a8:b2:e7:31:cb:7b:93:27:a5:e1:be:56:69:1e:e3:58:d1:c1
        Signature Algorithm: sha1WithRSAEncryption
        Issuer: C=AU, O=Dodgy Brothers, CN=Dodgy CA
        Validity
            Not Before: Nov 27 14:08:15 2023 GMT
            Not After : Nov 26 14:08:15 2024 GMT
        Subject: C=AU, O=Dodgy Brothers, CN=Brother 1, CN=nextupdate_invalid
        Subject Public Key Info:
            Public Key Algorithm: rsaEncryption
                Public-Key: (2048 bit)
                Modulus:
                    00:be:95:86:fa:71:4c:6a:ea:51:98:50:4b:99:a1:
                    2c:66:15:f3:60:f3:e1:ff:69:fb:ce:48:01:1d:fe:
                    e1:2c:38:b0:e3:bd:8f:4b:48:a7:7e:3a:c6:73:e3:
                    ab:bf:e1:da:6e:96:f5:fe:c3:e4:b4:a8:ad:bc:56:
                    34:d4:96:25:74:27:c3:10:db:35:10:25:1c:8e:4b:
                    81:9b:fb:42:04:7c:6f:3d:e2:38:6c:0e:e4:2e:8e:
                    2a:18:6d:30:cd:67:2a:23:6b:37:cf:05:9f:cc:b7:
                    59:58:7f:ba:c4:0a:3f:8c:a4:ad:cb:98:9c:c0:f2:
                    8f:69:67:0f:c1:4e:33:cf:fc:85:5e:bb:5e:cf:93:
                    b0:cf:d9:f4:52:79:87:b1:f8:4d:15:68:65:d5:b7:
                    19:08:63:7f:5e:b1:34:ad:05:8f:5a:f0:e4:e1:8f:
                    25:f2:5c:5c:61:95:b0:56:2d:31:2b:08:65:79:e5:
                    b1:3b:9d:3e:b9:52:4b:ac:5d:c4:58:66:85:8d:81:
                    b3:04:28:f4:3f:2f:ac:92:01:62:d5:fd:8e:0b:da:
                    02:0c:7a:c7:6e:09:1c:ac:1c:b2:4c:d7:54:b8:26:
                    33:b2:5f:14:f3:b1:f9:3d:62:4d:40:99:6b:b6:e7:
                    89:58:97:d6:d4:4d:ea:4b:68:52:f3:3c:a8:b1:35:
                    88:db
                Exponent: 65537 (0x10001)
        X509v3 extensions:
            X509v3 Subject Key Identifier: 
                A1:DF:33:C3:CF:3E:53:41:A7:68:44:CC:AA:19:E1:84:C9:0D:BC:C6
            X509v3 Authority Key Identifier: 
                keyid:B4:11:33:F1:D7:E2:5E:F7:53:9E:20:22:10:4F:86:06:BF:1F:C9:5E
                DirName:/C=AU/O=Dodgy Brothers/CN=Dodgy CA
                serial:70:20:12:AD:D7:02:86:09:61:94:1E:FA:4D:DA:BB:52:D4:B0:71:71
            X509v3 Basic Constraints: critical
                CA:TRUE, pathlen:1
            X509v3 Key Usage: 
                Certificate Sign, CRL Sign
            X509v3 Issuer Alternative Name: 
                <EMPTY>

    Signature Algorithm: sha1WithRSAEncryption
    Signature Value:
        33:ca:f8:65:52:3e:2b:0b:73:ab:50:6a:66:2c:a9:c5:da:dc:
        b4:44:93:57:27:ba:ff:89:af:e3:32:7d:94:f6:88:a9:fb:b4:
        f3:3f:00:7a:70:7b:e9:87:54:8c:de:06:04:64:44:f4:39:76:
        73:35:a3:11:0a:56:6b:85:d1:b6:4b:7e:9d:d3:cf:55:ed:90:
        62:f8:df:9b:3e:16:28:44:33:f7:ad:40:71:59:1e:22:60:d8:
        1f:e8:54:fc:15:f3:f0:75:bc:a8:e3:35:00:a0:f7:0b:e6:cc:
        ef:fb:b3:9b:ff:af:7f:76:97:32:12:a5:f0:07:0a:df:17:aa:
        f8:f0:c9:34:dc:f0:c7:17:22:d1:d7:c2:8d:ab:d1:8d:76:03:
        43:b6:01:e0:52:fe:27:3a:2b:aa:9c:ab:90:78:23:a8:77:af:
        89:d7:99:f2:11:ed:cf:87:e8:4b:55:ec:60:0d:a0:d6:94:74:
        1c:1d:14:8b:c5:c4:dd:c9:5c:96:6c:7a:bc:1e:e7:cc:4e:a0:
        73:40:c7:93:b2:72:bc:2a:6d:44:68:22:f0:93:4a:a4:a9:f4:
        b2:d4:59:f5:43:aa:b9:ea:d5:77:8d:48:ae:fe:85:81:32:77:
        94:16:2e:6a:06:cc:02:51:20:2a:fe:a6:72:cf:0e:8e:ea:ca:
        4f:92:c3:75
-----BEGIN CERTIFICATE-----
MIID4zCCAsugAwIBAgIUJqeosucxy3uTJ6XhvlZpHuNY0cEwDQYJKoZIhvcNAQEF
BQAwOTELMAkGA1UEBhMCQVUxFzAVBgNVBAoMDkRvZGd5IEJyb3RoZXJzMREwDwYD
VQQDDAhEb2RneSBDQTAeFw0yMzExMjcxNDA4MTVaFw0yNDExMjYxNDA4MTVaMFcx
CzAJBgNVBAYTAkFVMRcwFQYDVQQKDA5Eb2RneSBCcm90aGVyczESMBAGA1UEAwwJ
QnJvdGhlciAxMRswGQYDVQQDDBJuZXh0dXBkYXRlX2ludmFsaWQwggEiMA0GCSqG
SIb3DQEBAQUAA4IBDwAwggEKAoIBAQC+lYb6cUxq6lGYUEuZoSxmFfNg8+H/afvO
SAEd/uEsOLDjvY9LSKd+OsZz46u/4dpulvX+w+S0qK28VjTUliV0J8MQ2zUQJRyO
S4Gb+0IEfG894jhsDuQujioYbTDNZyojazfPBZ/Mt1lYf7rECj+MpK3LmJzA8o9p
Zw/BTjPP/IVeu17Pk7DP2fRSeYex+E0VaGXVtxkIY39esTStBY9a8OThjyXyXFxh
lbBWLTErCGV55bE7nT65UkusXcRYZoWNgbMEKPQ/L6ySAWLV/Y4L2gIMesduCRys
HLJM11S4JjOyXxTzsfk9Yk1AmWu254lYl9bUTepLaFLzPKixNYjbAgMBAAGjgcQw
gcEwHQYDVR0OBBYEFKHfM8PPPlNBp2hEzKoZ4YTJDbzGMHQGA1UdIwRtMGuAFLQR
M/HX4l73U54gIhBPhga/H8leoT2kOzA5MQswCQYDVQQGEwJBVTEXMBUGA1UECgwO
RG9kZ3kgQnJvdGhlcnMxETAPBgNVBAMMCERvZGd5IENBghRwIBKt1wKGCWGUHvpN
2rtS1LBxcTASBgNVHRMBAf8ECDAGAQH/AgEBMAsGA1UdDwQEAwIBBjAJBgNVHRIE
AjAAMA0GCSqGSIb3DQEBBQUAA4IBAQAzyvhlUj4rC3OrUGpmLKnF2ty0RJNXJ7r/
ia/jMn2U9oip+7TzPwB6cHvph1SM3gYEZET0OXZzNaMRClZrhdG2S36d089V7ZBi
+N+bPhYoRDP3rUBxWR4iYNgf6FT8FfPwdbyo4zUAoPcL5szv+7Ob/69/dpcyEqXw
BwrfF6r48Mk03PDHFyLR18KNq9GNdgNDtgHgUv4nOiuqnKuQeCOod6+J15nyEe3P
h+hLVexgDaDWlHQcHRSLxcTdyVyWbHq8HufMTqBzQMeTsnK8Km1EaCLwk0qkqfSy
1Fn1Q6q56tV3jUiu/oWBMneUFi5qBswCUSAq/qZyzw6O6spPksN1
-----END CERTIFICATE-----
