Certificate:
    Data:
        Version: 3 (0x2)
        Serial Number:
            26:a7:a8:b2:e7:31:cb:7b:93:27:a5:e1:be:56:69:1e:e3:58:d1:c3
        Signature Algorithm: sha1WithRSAEncryption
        Issuer: C=AU, O=Dodgy Brothers, CN=Dodgy CA
        Validity
            Not Before: Nov 27 14:08:15 2023 GMT
            Not After : Nov 26 14:08:15 2024 GMT
        Subject: C=AU, O=Dodgy Brothers, CN=Brother 1, CN=nextupdate_generalizedtime
        Subject Public Key Info:
            Public Key Algorithm: rsaEncryption
                Public-Key: (2048 bit)
                Modulus:
                    00:be:95:86:fa:71:4c:6a:ea:51:98:50:4b:99:a1:
                    2c:66:15:f3:60:f3:e1:ff:69:fb:ce:48:01:1d:fe:
                    e1:2c:38:b0:e3:bd:8f:4b:48:a7:7e:3a:c6:73:e3:
                    ab:bf:e1:da:6e:96:f5:fe:c3:e4:b4:a8:ad:bc:56:
                    34:d4:96:25:74:27:c3:10:db:35:10:25:1c:8e:4b:
                    81:9b:fb:42:04:7c:6f:3d:e2:38:6c:0e:e4:2e:8e:
                    2a:18:6d:30:cd:67:2a:23:6b:37:cf:05:9f:cc:b7:
                    59:58:7f:ba:c4:0a:3f:8c:a4:ad:cb:98:9c:c0:f2:
                    8f:69:67:0f:c1:4e:33:cf:fc:85:5e:bb:5e:cf:93:
                    b0:cf:d9:f4:52:79:87:b1:f8:4d:15:68:65:d5:b7:
                    19:08:63:7f:5e:b1:34:ad:05:8f:5a:f0:e4:e1:8f:
                    25:f2:5c:5c:61:95:b0:56:2d:31:2b:08:65:79:e5:
                    b1:3b:9d:3e:b9:52:4b:ac:5d:c4:58:66:85:8d:81:
                    b3:04:28:f4:3f:2f:ac:92:01:62:d5:fd:8e:0b:da:
                    02:0c:7a:c7:6e:09:1c:ac:1c:b2:4c:d7:54:b8:26:
                    33:b2:5f:14:f3:b1:f9:3d:62:4d:40:99:6b:b6:e7:
                    89:58:97:d6:d4:4d:ea:4b:68:52:f3:3c:a8:b1:35:
                    88:db
                Exponent: 65537 (0x10001)
        X509v3 extensions:
            X509v3 Subject Key Identifier: 
                A1:DF:33:C3:CF:3E:53:41:A7:68:44:CC:AA:19:E1:84:C9:0D:BC:C6
            X509v3 Authority Key Identifier: 
                keyid:B4:11:33:F1:D7:E2:5E:F7:53:9E:20:22:10:4F:86:06:BF:1F:C9:5E
                DirName:/C=AU/O=Dodgy Brothers/CN=Dodgy CA
                serial:70:20:12:AD:D7:02:86:09:61:94:1E:FA:4D:DA:BB:52:D4:B0:71:71
            X509v3 Basic Constraints: critical
                CA:TRUE, pathlen:1
            X509v3 Key Usage: 
                Certificate Sign, CRL Sign
            X509v3 Issuer Alternative Name: 
                <EMPTY>

    Signature Algorithm: sha1WithRSAEncryption
    Signature Value:
        3c:47:c1:2f:2a:96:c3:f6:03:ca:ba:e9:be:e0:71:8c:9a:73:
        db:fe:ea:8b:62:32:c6:7e:d6:3e:e1:56:11:ce:e4:42:63:f8:
        87:f5:bb:54:c2:cc:03:03:a4:79:92:a2:b7:18:48:63:77:cb:
        de:2e:6f:a3:5b:29:ec:8f:e4:cc:a5:0d:e1:4b:78:4b:4d:66:
        58:7d:85:17:32:76:36:24:43:ca:43:50:c5:17:68:7c:c9:f0:
        b1:76:7f:27:20:8b:12:73:f0:c1:00:33:19:68:3d:83:7b:9c:
        ce:0f:8d:d5:22:83:22:78:40:bc:f4:0a:89:91:d9:db:87:62:
        eb:73:b2:02:ea:d6:ea:78:d2:ef:1b:a4:88:aa:da:b7:22:9c:
        65:8c:98:4c:c4:3c:1d:4a:c9:fe:84:f8:d5:94:ae:af:02:b6:
        11:1c:ca:dc:b2:b6:5d:5f:a5:65:fe:ab:15:fb:d8:41:36:cd:
        75:d3:98:4b:0d:56:5f:48:d2:18:17:79:c5:19:85:f1:68:e0:
        76:5f:e9:a8:8c:75:3e:50:26:e0:e3:7d:2d:31:0e:77:22:74:
        b1:1c:33:ee:7a:ae:40:be:47:e5:f4:b7:ca:85:8b:85:60:c7:
        bf:a3:75:35:7f:42:e7:6b:d5:40:ac:84:ae:12:08:2f:bf:89:
        67:4b:c5:89
-----BEGIN CERTIFICATE-----
MIID6zCCAtOgAwIBAgIUJqeosucxy3uTJ6XhvlZpHuNY0cMwDQYJKoZIhvcNAQEF
BQAwOTELMAkGA1UEBhMCQVUxFzAVBgNVBAoMDkRvZGd5IEJyb3RoZXJzMREwDwYD
VQQDDAhEb2RneSBDQTAeFw0yMzExMjcxNDA4MTVaFw0yNDExMjYxNDA4MTVaMF8x
CzAJBgNVBAYTAkFVMRcwFQYDVQQKDA5Eb2RneSBCcm90aGVyczESMBAGA1UEAwwJ
QnJvdGhlciAxMSMwIQYDVQQDDBpuZXh0dXBkYXRlX2dlbmVyYWxpemVkdGltZTCC
ASIwDQYJKoZIhvcNAQEBBQADggEPADCCAQoCggEBAL6VhvpxTGrqUZhQS5mhLGYV
82Dz4f9p+85IAR3+4Sw4sOO9j0tIp346xnPjq7/h2m6W9f7D5LSorbxWNNSWJXQn
wxDbNRAlHI5LgZv7QgR8bz3iOGwO5C6OKhhtMM1nKiNrN88Fn8y3WVh/usQKP4yk
rcuYnMDyj2lnD8FOM8/8hV67Xs+TsM/Z9FJ5h7H4TRVoZdW3GQhjf16xNK0Fj1rw
5OGPJfJcXGGVsFYtMSsIZXnlsTudPrlSS6xdxFhmhY2BswQo9D8vrJIBYtX9jgva
Agx6x24JHKwcskzXVLgmM7JfFPOx+T1iTUCZa7bniViX1tRN6ktoUvM8qLE1iNsC
AwEAAaOBxDCBwTAdBgNVHQ4EFgQUod8zw88+U0GnaETMqhnhhMkNvMYwdAYDVR0j
BG0wa4AUtBEz8dfiXvdTniAiEE+GBr8fyV6hPaQ7MDkxCzAJBgNVBAYTAkFVMRcw
FQYDVQQKDA5Eb2RneSBCcm90aGVyczERMA8GA1UEAwwIRG9kZ3kgQ0GCFHAgEq3X
AoYJYZQe+k3au1LUsHFxMBIGA1UdEwEB/wQIMAYBAf8CAQEwCwYDVR0PBAQDAgEG
MAkGA1UdEgQCMAAwDQYJKoZIhvcNAQEFBQADggEBADxHwS8qlsP2A8q66b7gcYya
c9v+6otiMsZ+1j7hVhHO5EJj+If1u1TCzAMDpHmSorcYSGN3y94ub6NbKeyP5Myl
DeFLeEtNZlh9hRcydjYkQ8pDUMUXaHzJ8LF2fycgixJz8MEAMxloPYN7nM4PjdUi
gyJ4QLz0ComR2duHYutzsgLq1up40u8bpIiq2rcinGWMmEzEPB1Kyf6E+NWUrq8C
thEcytyytl1fpWX+qxX72EE2zXXTmEsNVl9I0hgXecUZhfFo4HZf6aiMdT5QJuDj
fS0xDncidLEcM+56rkC+R+X0t8qFi4Vgx7+jdTV/Qudr1UCshK4SCC+/iWdLxYk=
-----END CERTIFICATE-----
