Certificate:
    Data:
        Version: 3 (0x2)
        Serial Number:
            26:a7:a8:b2:e7:31:cb:7b:93:27:a5:e1:be:56:69:1e:e3:58:d1:c5
        Signature Algorithm: sha1WithRSAEncryption
        Issuer: C=AU, O=Dodgy Brothers, CN=Dodgy CA
        Validity
            Not Before: Nov 27 14:08:15 2023 GMT
            Not After : Nov 26 14:08:15 2024 GMT
        Subject: C=AU, O=Dodgy Brothers, CN=Brother 1, CN=both_generalizedtime
        Subject Public Key Info:
            Public Key Algorithm: rsaEncryption
                Public-Key: (2048 bit)
                Modulus:
                    00:be:95:86:fa:71:4c:6a:ea:51:98:50:4b:99:a1:
                    2c:66:15:f3:60:f3:e1:ff:69:fb:ce:48:01:1d:fe:
                    e1:2c:38:b0:e3:bd:8f:4b:48:a7:7e:3a:c6:73:e3:
                    ab:bf:e1:da:6e:96:f5:fe:c3:e4:b4:a8:ad:bc:56:
                    34:d4:96:25:74:27:c3:10:db:35:10:25:1c:8e:4b:
                    81:9b:fb:42:04:7c:6f:3d:e2:38:6c:0e:e4:2e:8e:
                    2a:18:6d:30:cd:67:2a:23:6b:37:cf:05:9f:cc:b7:
                    59:58:7f:ba:c4:0a:3f:8c:a4:ad:cb:98:9c:c0:f2:
                    8f:69:67:0f:c1:4e:33:cf:fc:85:5e:bb:5e:cf:93:
                    b0:cf:d9:f4:52:79:87:b1:f8:4d:15:68:65:d5:b7:
                    19:08:63:7f:5e:b1:34:ad:05:8f:5a:f0:e4:e1:8f:
                    25:f2:5c:5c:61:95:b0:56:2d:31:2b:08:65:79:e5:
                    b1:3b:9d:3e:b9:52:4b:ac:5d:c4:58:66:85:8d:81:
                    b3:04:28:f4:3f:2f:ac:92:01:62:d5:fd:8e:0b:da:
                    02:0c:7a:c7:6e:09:1c:ac:1c:b2:4c:d7:54:b8:26:
                    33:b2:5f:14:f3:b1:f9:3d:62:4d:40:99:6b:b6:e7:
                    89:58:97:d6:d4:4d:ea:4b:68:52:f3:3c:a8:b1:35:
                    88:db
                Exponent: 65537 (0x10001)
        X509v3 extensions:
            X509v3 Subject Key Identifier: 
                A1:DF:33:C3:CF:3E:53:41:A7:68:44:CC:AA:19:E1:84:C9:0D:BC:C6
            X509v3 Authority Key Identifier: 
                keyid:B4:11:33:F1:D7:E2:5E:F7:53:9E:20:22:10:4F:86:06:BF:1F:C9:5E
                DirName:/C=AU/O=Dodgy Brothers/CN=Dodgy CA
                serial:70:20:12:AD:D7:02:86:09:61:94:1E:FA:4D:DA:BB:52:D4:B0:71:71
            X509v3 Basic Constraints: critical
                CA:TRUE, pathlen:1
            X509v3 Key Usage: 
                Certificate Sign, CRL Sign
            X509v3 Issuer Alternative Name: 
                <EMPTY>

    Signature Algorithm: sha1WithRSAEncryption
    Signature Value:
        0e:d2:e9:04:b5:d8:2a:b7:87:02:17:69:4b:14:93:76:24:83:
        57:a8:b5:50:d3:15:f5:83:52:b1:3f:1f:fe:6f:6e:67:59:14:
        b0:ea:9e:05:94:5e:53:0a:3f:38:c9:71:4d:57:67:7e:82:af:
        e9:26:1b:27:36:cd:ed:52:ec:4e:ee:40:fc:97:ad:2c:65:08:
        6a:25:56:20:6d:36:c5:fb:a7:0f:85:13:5c:67:48:1d:39:e7:
        a3:2b:8b:c9:ee:da:06:a6:c7:ba:37:9e:d4:f6:73:1a:38:10:
        cf:c5:f1:ba:57:0a:56:e9:52:d2:62:c0:b2:de:fa:b7:62:86:
        20:84:e1:a3:ec:14:fb:af:a1:eb:3b:6d:df:a0:bf:ca:1f:f1:
        a1:a8:89:11:21:75:17:b9:c6:ae:7d:6e:1b:06:19:b8:2b:43:
        2d:03:7c:35:a4:77:82:6a:3e:75:ff:bc:aa:5d:4e:7c:91:07:
        fb:4c:f8:48:d6:8a:6b:9e:fb:8a:2d:e8:f3:49:a2:8e:a1:be:
        dc:9d:bf:5c:9a:c9:ae:a6:24:c8:34:02:37:5b:e8:09:da:c7:
        f8:3b:ef:5a:36:4b:06:8b:f0:ce:1c:9c:11:a3:ae:e1:24:ee:
        70:28:87:e9:ae:03:4f:51:06:dd:d2:d7:d0:53:db:2e:92:66:
        d6:f1:b9:1f
-----BEGIN CERTIFICATE-----
MIID5TCCAs2gAwIBAgIUJqeosucxy3uTJ6XhvlZpHuNY0cUwDQYJKoZIhvcNAQEF
BQAwOTELMAkGA1UEBhMCQVUxFzAVBgNVBAoMDkRvZGd5IEJyb3RoZXJzMREwDwYD
VQQDDAhEb2RneSBDQTAeFw0yMzExMjcxNDA4MTVaFw0yNDExMjYxNDA4MTVaMFkx
CzAJBgNVBAYTAkFVMRcwFQYDVQQKDA5Eb2RneSBCcm90aGVyczESMBAGA1UEAwwJ
QnJvdGhlciAxMR0wGwYDVQQDDBRib3RoX2dlbmVyYWxpemVkdGltZTCCASIwDQYJ
KoZIhvcNAQEBBQADggEPADCCAQoCggEBAL6VhvpxTGrqUZhQS5mhLGYV82Dz4f9p
+85IAR3+4Sw4sOO9j0tIp346xnPjq7/h2m6W9f7D5LSorbxWNNSWJXQnwxDbNRAl
HI5LgZv7QgR8bz3iOGwO5C6OKhhtMM1nKiNrN88Fn8y3WVh/usQKP4ykrcuYnMDy
j2lnD8FOM8/8hV67Xs+TsM/Z9FJ5h7H4TRVoZdW3GQhjf16xNK0Fj1rw5OGPJfJc
XGGVsFYtMSsIZXnlsTudPrlSS6xdxFhmhY2BswQo9D8vrJIBYtX9jgvaAgx6x24J
HKwcskzXVLgmM7JfFPOx+T1iTUCZa7bniViX1tRN6ktoUvM8qLE1iNsCAwEAAaOB
xDCBwTAdBgNVHQ4EFgQUod8zw88+U0GnaETMqhnhhMkNvMYwdAYDVR0jBG0wa4AU
tBEz8dfiXvdTniAiEE+GBr8fyV6hPaQ7MDkxCzAJBgNVBAYTAkFVMRcwFQYDVQQK
DA5Eb2RneSBCcm90aGVyczERMA8GA1UEAwwIRG9kZ3kgQ0GCFHAgEq3XAoYJYZQe
+k3au1LUsHFxMBIGA1UdEwEB/wQIMAYBAf8CAQEwCwYDVR0PBAQDAgEGMAkGA1Ud
EgQCMAAwDQYJKoZIhvcNAQEFBQADggEBAA7S6QS12Cq3hwIXaUsUk3Ykg1eotVDT
FfWDUrE/H/5vbmdZFLDqngWUXlMKPzjJcU1XZ36Cr+kmGyc2ze1S7E7uQPyXrSxl
CGolViBtNsX7pw+FE1xnSB0556Mri8nu2gamx7o3ntT2cxo4EM/F8bpXClbpUtJi
wLLe+rdihiCE4aPsFPuvoes7bd+gv8of8aGoiREhdRe5xq59bhsGGbgrQy0DfDWk
d4JqPnX/vKpdTnyRB/tM+EjWimue+4ot6PNJoo6hvtydv1yaya6mJMg0Ajdb6Ana
x/g771o2SwaL8M4cnBGjruEk7nAoh+muA09RBt3S19BT2y6SZtbxuR8=
-----END CERTIFICATE-----
