Certificate:
    Data:
        Version: 3 (0x2)
        Serial Number:
            26:a7:a8:b2:e7:31:cb:7b:93:27:a5:e1:be:56:69:1e:e3:58:d1:bf
        Signature Algorithm: sha1WithRSAEncryption
        Issuer: C=AU, O=Dodgy Brothers, CN=Dodgy CA
        Validity
            Not Before: Nov 27 14:08:15 2023 GMT
            Not After : Nov 26 14:08:15 2024 GMT
        Subject: C=AU, O=Dodgy Brothers, CN=Brother 1, CN=lastupdate_utctime
        Subject Public Key Info:
            Public Key Algorithm: rsaEncryption
                Public-Key: (2048 bit)
                Modulus:
                    00:be:95:86:fa:71:4c:6a:ea:51:98:50:4b:99:a1:
                    2c:66:15:f3:60:f3:e1:ff:69:fb:ce:48:01:1d:fe:
                    e1:2c:38:b0:e3:bd:8f:4b:48:a7:7e:3a:c6:73:e3:
                    ab:bf:e1:da:6e:96:f5:fe:c3:e4:b4:a8:ad:bc:56:
                    34:d4:96:25:74:27:c3:10:db:35:10:25:1c:8e:4b:
                    81:9b:fb:42:04:7c:6f:3d:e2:38:6c:0e:e4:2e:8e:
                    2a:18:6d:30:cd:67:2a:23:6b:37:cf:05:9f:cc:b7:
                    59:58:7f:ba:c4:0a:3f:8c:a4:ad:cb:98:9c:c0:f2:
                    8f:69:67:0f:c1:4e:33:cf:fc:85:5e:bb:5e:cf:93:
                    b0:cf:d9:f4:52:79:87:b1:f8:4d:15:68:65:d5:b7:
                    19:08:63:7f:5e:b1:34:ad:05:8f:5a:f0:e4:e1:8f:
                    25:f2:5c:5c:61:95:b0:56:2d:31:2b:08:65:79:e5:
                    b1:3b:9d:3e:b9:52:4b:ac:5d:c4:58:66:85:8d:81:
                    b3:04:28:f4:3f:2f:ac:92:01:62:d5:fd:8e:0b:da:
                    02:0c:7a:c7:6e:09:1c:ac:1c:b2:4c:d7:54:b8:26:
                    33:b2:5f:14:f3:b1:f9:3d:62:4d:40:99:6b:b6:e7:
                    89:58:97:d6:d4:4d:ea:4b:68:52:f3:3c:a8:b1:35:
                    88:db
                Exponent: 65537 (0x10001)
        X509v3 extensions:
            X509v3 Subject Key Identifier: 
                A1:DF:33:C3:CF:3E:53:41:A7:68:44:CC:AA:19:E1:84:C9:0D:BC:C6
            X509v3 Authority Key Identifier: 
                keyid:B4:11:33:F1:D7:E2:5E:F7:53:9E:20:22:10:4F:86:06:BF:1F:C9:5E
                DirName:/C=AU/O=Dodgy Brothers/CN=Dodgy CA
                serial:70:20:12:AD:D7:02:86:09:61:94:1E:FA:4D:DA:BB:52:D4:B0:71:71
            X509v3 Basic Constraints: critical
                CA:TRUE, pathlen:1
            X509v3 Key Usage: 
                Certificate Sign, CRL Sign
            X509v3 Issuer Alternative Name: 
                <EMPTY>

    Signature Algorithm: sha1WithRSAEncryption
    Signature Value:
        77:63:58:7e:6a:79:93:4e:e6:fe:df:74:b8:cf:fa:42:43:b2:
        6b:29:f0:92:e9:0e:37:55:6c:a4:9d:ce:d8:76:99:28:29:bb:
        99:fc:e5:a1:7e:20:25:ba:2c:4e:c0:40:be:20:eb:34:db:1f:
        1d:58:85:9b:d9:74:24:41:8d:66:b9:23:67:01:82:7a:00:89:
        ea:01:ab:37:5a:f5:12:ab:9b:b6:f2:7f:e5:aa:2d:b6:44:fa:
        d4:ad:dc:9d:94:08:75:c0:66:87:9c:95:47:0d:8b:ba:30:e4:
        84:63:34:3f:30:e0:f9:88:8f:03:38:b2:66:04:8b:47:4e:92:
        d8:e2:0e:06:43:f7:a6:ec:1e:92:d2:6c:1c:a6:7b:71:e3:4a:
        ef:8d:3d:85:18:bb:7f:b0:d3:39:96:ed:de:5d:ec:e1:2e:77:
        d8:62:b6:9c:c8:63:83:3d:ad:b7:3c:75:1d:67:b5:5c:e1:ac:
        6d:2e:98:9c:92:7f:32:89:f9:64:31:1e:84:f9:1a:fa:85:c0:
        40:66:13:e2:15:be:4f:a1:0b:1b:7e:15:0a:cb:9b:c4:56:37:
        50:9c:76:13:e3:36:67:81:87:a3:19:cf:6f:7b:0d:7a:39:c7:
        ff:40:c3:c8:21:07:7e:fa:d4:ee:ed:77:42:c9:a3:02:ca:45:
        44:a5:38:7d
-----BEGIN CERTIFICATE-----
MIID4zCCAsugAwIBAgIUJqeosucxy3uTJ6XhvlZpHuNY0b8wDQYJKoZIhvcNAQEF
BQAwOTELMAkGA1UEBhMCQVUxFzAVBgNVBAoMDkRvZGd5IEJyb3RoZXJzMREwDwYD
VQQDDAhEb2RneSBDQTAeFw0yMzExMjcxNDA4MTVaFw0yNDExMjYxNDA4MTVaMFcx
CzAJBgNVBAYTAkFVMRcwFQYDVQQKDA5Eb2RneSBCcm90aGVyczESMBAGA1UEAwwJ
QnJvdGhlciAxMRswGQYDVQQDDBJsYXN0dXBkYXRlX3V0Y3RpbWUwggEiMA0GCSqG
SIb3DQEBAQUAA4IBDwAwggEKAoIBAQC+lYb6cUxq6lGYUEuZoSxmFfNg8+H/afvO
SAEd/uEsOLDjvY9LSKd+OsZz46u/4dpulvX+w+S0qK28VjTUliV0J8MQ2zUQJRyO
S4Gb+0IEfG894jhsDuQujioYbTDNZyojazfPBZ/Mt1lYf7rECj+MpK3LmJzA8o9p
Zw/BTjPP/IVeu17Pk7DP2fRSeYex+E0VaGXVtxkIY39esTStBY9a8OThjyXyXFxh
lbBWLTErCGV55bE7nT65UkusXcRYZoWNgbMEKPQ/L6ySAWLV/Y4L2gIMesduCRys
HLJM11S4JjOyXxTzsfk9Yk1AmWu254lYl9bUTepLaFLzPKixNYjbAgMBAAGjgcQw
gcEwHQYDVR0OBBYEFKHfM8PPPlNBp2hEzKoZ4YTJDbzGMHQGA1UdIwRtMGuAFLQR
M/HX4l73U54gIhBPhga/H8leoT2kOzA5MQswCQYDVQQGEwJBVTEXMBUGA1UECgwO
RG9kZ3kgQnJvdGhlcnMxETAPBgNVBAMMCERvZGd5IENBghRwIBKt1wKGCWGUHvpN
2rtS1LBxcTASBgNVHRMBAf8ECDAGAQH/AgEBMAsGA1UdDwQEAwIBBjAJBgNVHRIE
AjAAMA0GCSqGSIb3DQEBBQUAA4IBAQB3Y1h+anmTTub+33S4z/pCQ7JrKfCS6Q43
VWyknc7YdpkoKbuZ/OWhfiAluixOwEC+IOs02x8dWIWb2XQkQY1muSNnAYJ6AInq
Aas3WvUSq5u28n/lqi22RPrUrdydlAh1wGaHnJVHDYu6MOSEYzQ/MOD5iI8DOLJm
BItHTpLY4g4GQ/em7B6S0mwcpntx40rvjT2FGLt/sNM5lu3eXezhLnfYYracyGOD
Pa23PHUdZ7Vc4axtLpickn8yiflkMR6E+Rr6hcBAZhPiFb5PoQsbfhUKy5vEVjdQ
nHYT4zZngYejGc9vew16Ocf/QMPIIQd++tTu7XdCyaMCykVEpTh9
-----END CERTIFICATE-----
