Certificate:
    Data:
        Version: 3 (0x2)
        Serial Number:
            26:a7:a8:b2:e7:31:cb:7b:93:27:a5:e1:be:56:69:1e:e3:58:d1:be
        Signature Algorithm: sha1WithRSAEncryption
        Issuer: C=AU, O=Dodgy Brothers, CN=Dodgy CA
        Validity
            Not Before: Nov 27 14:08:15 2023 GMT
            Not After : Nov 26 14:08:15 2024 GMT
        Subject: C=AU, O=Dodgy Brothers, CN=Brother 1, CN=lastupdate_invalid
        Subject Public Key Info:
            Public Key Algorithm: rsaEncryption
                Public-Key: (2048 bit)
                Modulus:
                    00:be:95:86:fa:71:4c:6a:ea:51:98:50:4b:99:a1:
                    2c:66:15:f3:60:f3:e1:ff:69:fb:ce:48:01:1d:fe:
                    e1:2c:38:b0:e3:bd:8f:4b:48:a7:7e:3a:c6:73:e3:
                    ab:bf:e1:da:6e:96:f5:fe:c3:e4:b4:a8:ad:bc:56:
                    34:d4:96:25:74:27:c3:10:db:35:10:25:1c:8e:4b:
                    81:9b:fb:42:04:7c:6f:3d:e2:38:6c:0e:e4:2e:8e:
                    2a:18:6d:30:cd:67:2a:23:6b:37:cf:05:9f:cc:b7:
                    59:58:7f:ba:c4:0a:3f:8c:a4:ad:cb:98:9c:c0:f2:
                    8f:69:67:0f:c1:4e:33:cf:fc:85:5e:bb:5e:cf:93:
                    b0:cf:d9:f4:52:79:87:b1:f8:4d:15:68:65:d5:b7:
                    19:08:63:7f:5e:b1:34:ad:05:8f:5a:f0:e4:e1:8f:
                    25:f2:5c:5c:61:95:b0:56:2d:31:2b:08:65:79:e5:
                    b1:3b:9d:3e:b9:52:4b:ac:5d:c4:58:66:85:8d:81:
                    b3:04:28:f4:3f:2f:ac:92:01:62:d5:fd:8e:0b:da:
                    02:0c:7a:c7:6e:09:1c:ac:1c:b2:4c:d7:54:b8:26:
                    33:b2:5f:14:f3:b1:f9:3d:62:4d:40:99:6b:b6:e7:
                    89:58:97:d6:d4:4d:ea:4b:68:52:f3:3c:a8:b1:35:
                    88:db
                Exponent: 65537 (0x10001)
        X509v3 extensions:
            X509v3 Subject Key Identifier: 
                A1:DF:33:C3:CF:3E:53:41:A7:68:44:CC:AA:19:E1:84:C9:0D:BC:C6
            X509v3 Authority Key Identifier: 
                keyid:B4:11:33:F1:D7:E2:5E:F7:53:9E:20:22:10:4F:86:06:BF:1F:C9:5E
                DirName:/C=AU/O=Dodgy Brothers/CN=Dodgy CA
                serial:70:20:12:AD:D7:02:86:09:61:94:1E:FA:4D:DA:BB:52:D4:B0:71:71
            X509v3 Basic Constraints: critical
                CA:TRUE, pathlen:1
            X509v3 Key Usage: 
                Certificate Sign, CRL Sign
            X509v3 Issuer Alternative Name: 
                <EMPTY>

    Signature Algorithm: sha1WithRSAEncryption
    Signature Value:
        46:64:30:34:fe:fb:fd:a9:30:2a:de:b1:db:71:6f:bd:2b:d2:
        a5:e3:3b:70:c0:6d:66:6c:32:38:b6:84:78:14:d2:b1:1e:69:
        4d:c8:6c:f9:23:f9:6a:a8:68:52:1f:a8:e5:c2:18:e1:6f:2f:
        88:ec:47:7b:03:bd:e1:05:21:a8:62:0b:96:98:b4:9f:c4:d4:
        b1:1c:de:dc:8f:fb:df:05:62:db:33:a7:be:34:9d:56:3b:af:
        cb:94:bb:07:c7:45:e1:90:4e:a5:3a:46:00:f4:45:82:e0:05:
        68:92:5b:9e:64:ac:a6:ae:be:05:a0:ad:5b:6d:0b:4d:4a:61:
        17:88:84:85:29:43:7f:7e:46:fb:26:cb:42:15:d3:dc:1a:34:
        03:2b:16:38:1a:f3:f2:b8:a3:d2:f7:9a:70:08:41:f4:c7:1f:
        6f:9a:15:33:d5:38:e1:d3:f6:22:a2:61:b1:b9:84:2a:8d:28:
        96:33:52:bd:c0:3f:de:b8:21:ed:93:3b:45:d3:6d:71:c5:c4:
        1b:d1:c8:10:b2:c6:d5:b2:82:8a:54:99:10:9f:a9:b3:46:7e:
        25:8a:9d:56:99:2b:a9:58:18:6e:70:15:21:b5:29:c2:2b:2f:
        4f:19:b4:ef:76:b4:1a:9d:06:e0:2e:9f:f6:32:97:87:72:cd:
        a2:8a:e1:6c
-----BEGIN CERTIFICATE-----
MIID4zCCAsugAwIBAgIUJqeosucxy3uTJ6XhvlZpHuNY0b4wDQYJKoZIhvcNAQEF
BQAwOTELMAkGA1UEBhMCQVUxFzAVBgNVBAoMDkRvZGd5IEJyb3RoZXJzMREwDwYD
VQQDDAhEb2RneSBDQTAeFw0yMzExMjcxNDA4MTVaFw0yNDExMjYxNDA4MTVaMFcx
CzAJBgNVBAYTAkFVMRcwFQYDVQQKDA5Eb2RneSBCcm90aGVyczESMBAGA1UEAwwJ
QnJvdGhlciAxMRswGQYDVQQDDBJsYXN0dXBkYXRlX2ludmFsaWQwggEiMA0GCSqG
SIb3DQEBAQUAA4IBDwAwggEKAoIBAQC+lYb6cUxq6lGYUEuZoSxmFfNg8+H/afvO
SAEd/uEsOLDjvY9LSKd+OsZz46u/4dpulvX+w+S0qK28VjTUliV0J8MQ2zUQJRyO
S4Gb+0IEfG894jhsDuQujioYbTDNZyojazfPBZ/Mt1lYf7rECj+MpK3LmJzA8o9p
Zw/BTjPP/IVeu17Pk7DP2fRSeYex+E0VaGXVtxkIY39esTStBY9a8OThjyXyXFxh
lbBWLTErCGV55bE7nT65UkusXcRYZoWNgbMEKPQ/L6ySAWLV/Y4L2gIMesduCRys
HLJM11S4JjOyXxTzsfk9Yk1AmWu254lYl9bUTepLaFLzPKixNYjbAgMBAAGjgcQw
gcEwHQYDVR0OBBYEFKHfM8PPPlNBp2hEzKoZ4YTJDbzGMHQGA1UdIwRtMGuAFLQR
M/HX4l73U54gIhBPhga/H8leoT2kOzA5MQswCQYDVQQGEwJBVTEXMBUGA1UECgwO
RG9kZ3kgQnJvdGhlcnMxETAPBgNVBAMMCERvZGd5IENBghRwIBKt1wKGCWGUHvpN
2rtS1LBxcTASBgNVHRMBAf8ECDAGAQH/AgEBMAsGA1UdDwQEAwIBBjAJBgNVHRIE
AjAAMA0GCSqGSIb3DQEBBQUAA4IBAQBGZDA0/vv9qTAq3rHbcW+9K9Kl4ztwwG1m
bDI4toR4FNKxHmlNyGz5I/lqqGhSH6jlwhjhby+I7Ed7A73hBSGoYguWmLSfxNSx
HN7cj/vfBWLbM6e+NJ1WO6/LlLsHx0XhkE6lOkYA9EWC4AVoklueZKymrr4FoK1b
bQtNSmEXiISFKUN/fkb7JstCFdPcGjQDKxY4GvPyuKPS95pwCEH0xx9vmhUz1Tjh
0/YiomGxuYQqjSiWM1K9wD/euCHtkztF021xxcQb0cgQssbVsoKKVJkQn6mzRn4l
ip1WmSupWBhucBUhtSnCKy9PGbTvdrQanQbgLp/2MpeHcs2iiuFs
-----END CERTIFICATE-----
