Certificate:
    Data:
        Version: 3 (0x2)
        Serial Number:
            26:a7:a8:b2:e7:31:cb:7b:93:27:a5:e1:be:56:69:1e:e3:58:d1:c2
        Signature Algorithm: sha1WithRSAEncryption
        Issuer: C=AU, O=Dodgy Brothers, CN=Dodgy CA
        Validity
            Not Before: Nov 27 14:08:15 2023 GMT
            Not After : Nov 26 14:08:15 2024 GMT
        Subject: C=AU, O=Dodgy Brothers, CN=Brother 1, CN=nextupdate_utctime
        Subject Public Key Info:
            Public Key Algorithm: rsaEncryption
                Public-Key: (2048 bit)
                Modulus:
                    00:be:95:86:fa:71:4c:6a:ea:51:98:50:4b:99:a1:
                    2c:66:15:f3:60:f3:e1:ff:69:fb:ce:48:01:1d:fe:
                    e1:2c:38:b0:e3:bd:8f:4b:48:a7:7e:3a:c6:73:e3:
                    ab:bf:e1:da:6e:96:f5:fe:c3:e4:b4:a8:ad:bc:56:
                    34:d4:96:25:74:27:c3:10:db:35:10:25:1c:8e:4b:
                    81:9b:fb:42:04:7c:6f:3d:e2:38:6c:0e:e4:2e:8e:
                    2a:18:6d:30:cd:67:2a:23:6b:37:cf:05:9f:cc:b7:
                    59:58:7f:ba:c4:0a:3f:8c:a4:ad:cb:98:9c:c0:f2:
                    8f:69:67:0f:c1:4e:33:cf:fc:85:5e:bb:5e:cf:93:
                    b0:cf:d9:f4:52:79:87:b1:f8:4d:15:68:65:d5:b7:
                    19:08:63:7f:5e:b1:34:ad:05:8f:5a:f0:e4:e1:8f:
                    25:f2:5c:5c:61:95:b0:56:2d:31:2b:08:65:79:e5:
                    b1:3b:9d:3e:b9:52:4b:ac:5d:c4:58:66:85:8d:81:
                    b3:04:28:f4:3f:2f:ac:92:01:62:d5:fd:8e:0b:da:
                    02:0c:7a:c7:6e:09:1c:ac:1c:b2:4c:d7:54:b8:26:
                    33:b2:5f:14:f3:b1:f9:3d:62:4d:40:99:6b:b6:e7:
                    89:58:97:d6:d4:4d:ea:4b:68:52:f3:3c:a8:b1:35:
                    88:db
                Exponent: 65537 (0x10001)
        X509v3 extensions:
            X509v3 Subject Key Identifier: 
                A1:DF:33:C3:CF:3E:53:41:A7:68:44:CC:AA:19:E1:84:C9:0D:BC:C6
            X509v3 Authority Key Identifier: 
                keyid:B4:11:33:F1:D7:E2:5E:F7:53:9E:20:22:10:4F:86:06:BF:1F:C9:5E
                DirName:/C=AU/O=Dodgy Brothers/CN=Dodgy CA
                serial:70:20:12:AD:D7:02:86:09:61:94:1E:FA:4D:DA:BB:52:D4:B0:71:71
            X509v3 Basic Constraints: critical
                CA:TRUE, pathlen:1
            X509v3 Key Usage: 
                Certificate Sign, CRL Sign
            X509v3 Issuer Alternative Name: 
                <EMPTY>

    Signature Algorithm: sha1WithRSAEncryption
    Signature Value:
        33:a1:28:55:e0:11:7e:55:32:41:3e:8b:17:e0:34:f7:98:92:
        c3:ea:ec:1d:84:43:bc:06:49:28:79:12:cc:a4:cc:f8:5c:ca:
        93:30:24:0a:58:cb:77:d8:26:99:6f:ca:4e:d6:ed:91:b5:87:
        63:ea:25:e2:9f:83:85:3f:4b:30:0d:23:54:fa:2b:87:71:ef:
        a6:6e:2c:1f:a0:d0:4b:8f:18:77:d9:7e:ab:3e:e1:e9:3f:07:
        cf:0f:1f:e2:f9:a3:cf:87:c2:e0:c2:38:b9:88:0d:72:a7:ae:
        f6:12:5b:26:b3:6d:24:8c:00:71:0a:75:35:90:30:1e:3a:63:
        fe:94:f9:01:66:5e:7d:cc:f9:2d:d1:b3:66:ee:99:fc:ca:90:
        09:b0:70:f1:f7:d5:e4:47:e4:ed:a9:47:9e:2f:d1:72:97:b7:
        12:94:9c:9e:20:aa:89:e9:c0:6f:7e:fe:23:c5:cd:6d:1b:83:
        62:9c:0b:b6:ab:09:9a:97:c1:28:9c:4c:14:08:32:3e:5f:5d:
        fd:86:ec:60:71:b0:87:06:6c:c5:17:4b:b9:af:79:b4:47:f7:
        ff:65:84:5e:c8:f3:ca:d8:a8:bd:cd:f8:68:b0:a3:d1:70:fb:
        b0:43:40:3e:68:94:66:2b:cc:0e:b8:4a:2f:1f:fd:35:5f:ce:
        2c:85:9e:8a
-----BEGIN CERTIFICATE-----
MIID4zCCAsugAwIBAgIUJqeosucxy3uTJ6XhvlZpHuNY0cIwDQYJKoZIhvcNAQEF
BQAwOTELMAkGA1UEBhMCQVUxFzAVBgNVBAoMDkRvZGd5IEJyb3RoZXJzMREwDwYD
VQQDDAhEb2RneSBDQTAeFw0yMzExMjcxNDA4MTVaFw0yNDExMjYxNDA4MTVaMFcx
CzAJBgNVBAYTAkFVMRcwFQYDVQQKDA5Eb2RneSBCcm90aGVyczESMBAGA1UEAwwJ
QnJvdGhlciAxMRswGQYDVQQDDBJuZXh0dXBkYXRlX3V0Y3RpbWUwggEiMA0GCSqG
SIb3DQEBAQUAA4IBDwAwggEKAoIBAQC+lYb6cUxq6lGYUEuZoSxmFfNg8+H/afvO
SAEd/uEsOLDjvY9LSKd+OsZz46u/4dpulvX+w+S0qK28VjTUliV0J8MQ2zUQJRyO
S4Gb+0IEfG894jhsDuQujioYbTDNZyojazfPBZ/Mt1lYf7rECj+MpK3LmJzA8o9p
Zw/BTjPP/IVeu17Pk7DP2fRSeYex+E0VaGXVtxkIY39esTStBY9a8OThjyXyXFxh
lbBWLTErCGV55bE7nT65UkusXcRYZoWNgbMEKPQ/L6ySAWLV/Y4L2gIMesduCRys
HLJM11S4JjOyXxTzsfk9Yk1AmWu254lYl9bUTepLaFLzPKixNYjbAgMBAAGjgcQw
gcEwHQYDVR0OBBYEFKHfM8PPPlNBp2hEzKoZ4YTJDbzGMHQGA1UdIwRtMGuAFLQR
M/HX4l73U54gIhBPhga/H8leoT2kOzA5MQswCQYDVQQGEwJBVTEXMBUGA1UECgwO
RG9kZ3kgQnJvdGhlcnMxETAPBgNVBAMMCERvZGd5IENBghRwIBKt1wKGCWGUHvpN
2rtS1LBxcTASBgNVHRMBAf8ECDAGAQH/AgEBMAsGA1UdDwQEAwIBBjAJBgNVHRIE
AjAAMA0GCSqGSIb3DQEBBQUAA4IBAQAzoShV4BF+VTJBPosX4DT3mJLD6uwdhEO8
BkkoeRLMpMz4XMqTMCQKWMt32CaZb8pO1u2RtYdj6iXin4OFP0swDSNU+iuHce+m
biwfoNBLjxh32X6rPuHpPwfPDx/i+aPPh8Lgwji5iA1yp672Elsms20kjABxCnU1
kDAeOmP+lPkBZl59zPkt0bNm7pn8ypAJsHDx99XkR+TtqUeeL9Fyl7cSlJyeIKqJ
6cBvfv4jxc1tG4NinAu2qwmal8EonEwUCDI+X139huxgcbCHBmzFF0u5r3m0R/f/
ZYReyPPK2Ki9zfhosKPRcPuwQ0A+aJRmK8wOuEovH/01X84shZ6K
-----END CERTIFICATE-----
