Certificate:
    Data:
        Version: 3 (0x2)
        Serial Number:
            26:a7:a8:b2:e7:31:cb:7b:93:27:a5:e1:be:56:69:1e:e3:58:d1:bd
        Signature Algorithm: sha1WithRSAEncryption
        Issuer: C=AU, O=Dodgy Brothers, CN=Dodgy CA
        Validity
            Not Before: Nov 27 14:08:14 2023 GMT
            Not After : Nov 26 14:08:14 2024 GMT
        Subject: C=AU, O=Dodgy Brothers, CN=Brother 1, CN=notimes
        Subject Public Key Info:
            Public Key Algorithm: rsaEncryption
                Public-Key: (2048 bit)
                Modulus:
                    00:be:95:86:fa:71:4c:6a:ea:51:98:50:4b:99:a1:
                    2c:66:15:f3:60:f3:e1:ff:69:fb:ce:48:01:1d:fe:
                    e1:2c:38:b0:e3:bd:8f:4b:48:a7:7e:3a:c6:73:e3:
                    ab:bf:e1:da:6e:96:f5:fe:c3:e4:b4:a8:ad:bc:56:
                    34:d4:96:25:74:27:c3:10:db:35:10:25:1c:8e:4b:
                    81:9b:fb:42:04:7c:6f:3d:e2:38:6c:0e:e4:2e:8e:
                    2a:18:6d:30:cd:67:2a:23:6b:37:cf:05:9f:cc:b7:
                    59:58:7f:ba:c4:0a:3f:8c:a4:ad:cb:98:9c:c0:f2:
                    8f:69:67:0f:c1:4e:33:cf:fc:85:5e:bb:5e:cf:93:
                    b0:cf:d9:f4:52:79:87:b1:f8:4d:15:68:65:d5:b7:
                    19:08:63:7f:5e:b1:34:ad:05:8f:5a:f0:e4:e1:8f:
                    25:f2:5c:5c:61:95:b0:56:2d:31:2b:08:65:79:e5:
                    b1:3b:9d:3e:b9:52:4b:ac:5d:c4:58:66:85:8d:81:
                    b3:04:28:f4:3f:2f:ac:92:01:62:d5:fd:8e:0b:da:
                    02:0c:7a:c7:6e:09:1c:ac:1c:b2:4c:d7:54:b8:26:
                    33:b2:5f:14:f3:b1:f9:3d:62:4d:40:99:6b:b6:e7:
                    89:58:97:d6:d4:4d:ea:4b:68:52:f3:3c:a8:b1:35:
                    88:db
                Exponent: 65537 (0x10001)
        X509v3 extensions:
            X509v3 Subject Key Identifier: 
                A1:DF:33:C3:CF:3E:53:41:A7:68:44:CC:AA:19:E1:84:C9:0D:BC:C6
            X509v3 Authority Key Identifier: 
                keyid:B4:11:33:F1:D7:E2:5E:F7:53:9E:20:22:10:4F:86:06:BF:1F:C9:5E
                DirName:/C=AU/O=Dodgy Brothers/CN=Dodgy CA
                serial:70:20:12:AD:D7:02:86:09:61:94:1E:FA:4D:DA:BB:52:D4:B0:71:71
            X509v3 Basic Constraints: critical
                CA:TRUE, pathlen:1
            X509v3 Key Usage: 
                Certificate Sign, CRL Sign
            X509v3 Issuer Alternative Name: 
                <EMPTY>

    Signature Algorithm: sha1WithRSAEncryption
    Signature Value:
        5d:ee:1f:9a:fd:80:dc:fc:c5:cf:62:0b:1f:d6:e7:44:ba:ef:
        1c:21:2f:e2:f3:f5:a3:e1:13:f2:36:cd:e8:dc:f4:9b:15:99:
        8f:63:e0:e2:ec:28:eb:83:fc:ff:09:1e:aa:c6:b6:cc:67:15:
        25:c7:12:4e:02:b5:38:da:fa:b0:a5:8c:bf:63:a4:43:31:2e:
        7f:64:84:fd:f2:5a:42:bd:07:97:ca:cc:28:9f:d6:7d:18:83:
        b1:e9:ba:7a:ca:36:1f:16:87:f8:65:d9:c9:d5:ed:09:57:69:
        5c:4b:de:4b:5c:f9:ba:5c:80:71:1d:b6:99:1d:c5:b6:9e:eb:
        39:23:00:23:2f:0f:cc:27:72:6a:2c:e3:91:0a:3d:32:78:e7:
        ca:bd:f3:96:b9:b1:29:ad:fd:5a:1e:c7:b6:0b:54:a4:98:52:
        b4:26:23:54:65:75:da:53:ee:a9:93:b1:a3:1d:ed:17:07:cd:
        ab:d9:a7:12:0e:5b:1d:72:8d:7f:d5:de:5e:01:76:c2:82:3d:
        14:a2:e6:fd:73:20:8c:ee:ea:f2:4e:62:c9:0d:da:7e:81:13:
        67:db:8d:48:a5:70:65:62:44:45:12:b2:3d:51:a7:b0:5e:84:
        f3:10:21:68:d9:a9:54:15:b0:fa:07:5b:09:dc:86:ed:22:da:
        ca:0f:bb:b3
-----BEGIN CERTIFICATE-----
MIID2DCCAsCgAwIBAgIUJqeosucxy3uTJ6XhvlZpHuNY0b0wDQYJKoZIhvcNAQEF
BQAwOTELMAkGA1UEBhMCQVUxFzAVBgNVBAoMDkRvZGd5IEJyb3RoZXJzMREwDwYD
VQQDDAhEb2RneSBDQTAeFw0yMzExMjcxNDA4MTRaFw0yNDExMjYxNDA4MTRaMEwx
CzAJBgNVBAYTAkFVMRcwFQYDVQQKDA5Eb2RneSBCcm90aGVyczESMBAGA1UEAwwJ
QnJvdGhlciAxMRAwDgYDVQQDDAdub3RpbWVzMIIBIjANBgkqhkiG9w0BAQEFAAOC
AQ8AMIIBCgKCAQEAvpWG+nFMaupRmFBLmaEsZhXzYPPh/2n7zkgBHf7hLDiw472P
S0infjrGc+Orv+Habpb1/sPktKitvFY01JYldCfDENs1ECUcjkuBm/tCBHxvPeI4
bA7kLo4qGG0wzWcqI2s3zwWfzLdZWH+6xAo/jKSty5icwPKPaWcPwU4zz/yFXrte
z5Owz9n0UnmHsfhNFWhl1bcZCGN/XrE0rQWPWvDk4Y8l8lxcYZWwVi0xKwhleeWx
O50+uVJLrF3EWGaFjYGzBCj0Py+skgFi1f2OC9oCDHrHbgkcrByyTNdUuCYzsl8U
87H5PWJNQJlrtueJWJfW1E3qS2hS8zyosTWI2wIDAQABo4HEMIHBMB0GA1UdDgQW
BBSh3zPDzz5TQadoRMyqGeGEyQ28xjB0BgNVHSMEbTBrgBS0ETPx1+Je91OeICIQ
T4YGvx/JXqE9pDswOTELMAkGA1UEBhMCQVUxFzAVBgNVBAoMDkRvZGd5IEJyb3Ro
ZXJzMREwDwYDVQQDDAhEb2RneSBDQYIUcCASrdcChglhlB76Tdq7UtSwcXEwEgYD
VR0TAQH/BAgwBgEB/wIBATALBgNVHQ8EBAMCAQYwCQYDVR0SBAIwADANBgkqhkiG
9w0BAQUFAAOCAQEAXe4fmv2A3PzFz2ILH9bnRLrvHCEv4vP1o+ET8jbN6Nz0mxWZ
j2Pg4uwo64P8/wkeqsa2zGcVJccSTgK1ONr6sKWMv2OkQzEuf2SE/fJaQr0Hl8rM
KJ/WfRiDsem6eso2HxaH+GXZydXtCVdpXEveS1z5ulyAcR22mR3Ftp7rOSMAIy8P
zCdyaizjkQo9Mnjnyr3zlrmxKa39Wh7HtgtUpJhStCYjVGV12lPuqZOxox3tFwfN
q9mnEg5bHXKNf9XeXgF2woI9FKLm/XMgjO7q8k5iyQ3afoETZ9uNSKVwZWJERRKy
PVGnsF6E8xAhaNmpVBWw+gdbCdyG7SLayg+7sw==
-----END CERTIFICATE-----
