Certificate:
    Data:
        Version: 3 (0x2)
        Serial Number:
            26:a7:a8:b2:e7:31:cb:7b:93:27:a5:e1:be:56:69:1e:e3:58:d1:bc
        Signature Algorithm: sha1WithRSAEncryption
        Issuer: C=AU, O=Dodgy Brothers, CN=Dodgy CA
        Validity
            Not Before: Nov 27 14:08:14 2023 GMT
            Not After : Nov 26 14:08:14 2024 GMT
        Subject: CN=x509-check-test
        Subject Public Key Info:
            Public Key Algorithm: rsaEncryption
                Public-Key: (2048 bit)
                Modulus:
                    00:9d:ea:3a:60:16:23:3f:65:6e:9d:08:99:44:23:
                    19:8a:93:ba:c7:ec:c4:4b:f7:7c:16:df:6a:39:76:
                    e4:f0:b5:3d:5c:b3:fc:be:ca:57:de:cb:49:79:b5:
                    80:73:18:cc:63:50:f3:5e:60:64:c1:aa:2b:b3:ea:
                    e7:95:c8:cb:db:7b:7c:32:99:73:e9:fb:3c:e8:6a:
                    ad:e2:7f:72:72:71:bf:b5:82:ea:d2:ca:24:29:17:
                    a4:f5:3c:b9:9f:24:38:10:41:3d:17:9c:8e:ea:47:
                    01:c8:e4:52:53:bc:a3:3d:9a:9b:f7:88:aa:21:06:
                    c7:93:fd:af:32:7d:d9:36:ef:31:58:ad:23:19:8d:
                    f6:aa:65:cf:b4:6b:5f:1b:1e:2f:d2:80:d3:77:e8:
                    b8:fe:be:73:dc:b3:60:f3:4b:cc:a6:04:9d:74:66:
                    ae:a2:73:2e:b1:2f:7d:2c:1c:32:8f:38:a2:ab:0f:
                    cf:84:27:ab:2e:52:6e:42:a4:b2:f8:37:a8:cf:3a:
                    69:3d:0e:3e:d7:42:fd:98:c2:85:f6:4b:46:2c:e9:
                    d1:69:1e:e1:81:27:53:67:80:15:bf:d1:99:bd:a2:
                    c7:83:3b:1c:6a:a6:53:c6:21:86:bc:9c:de:c1:22:
                    b4:f0:00:91:21:92:62:93:12:2f:4f:f0:03:c8:8b:
                    a0:d5
                Exponent: 65537 (0x10001)
        X509v3 extensions:
            X509v3 Subject Key Identifier: 
                BF:D8:68:6F:B9:F3:A1:9A:3C:92:2E:40:E7:F8:72:A8:92:89:37:7E
            X509v3 Authority Key Identifier: 
                B4:11:33:F1:D7:E2:5E:F7:53:9E:20:22:10:4F:86:06:BF:1F:C9:5E
    Signature Algorithm: sha1WithRSAEncryption
    Signature Value:
        05:9a:57:17:3d:11:61:e6:23:6b:36:fc:92:3c:ef:67:4d:00:
        cc:5b:7b:27:1f:cb:74:10:5b:01:9b:3d:f5:36:3c:d2:c9:b9:
        4e:4e:f9:95:66:c2:41:19:14:7e:51:0b:ac:06:8f:cc:40:57:
        20:20:fa:4d:a2:6e:c5:01:b9:94:2e:61:fb:bd:47:da:26:55:
        43:7c:d4:df:d2:f5:a9:2d:88:d3:3b:1d:46:fa:41:0e:ff:e6:
        b9:7b:ad:38:b8:3d:37:ad:80:72:d4:11:7d:6a:19:4b:7a:23:
        5e:05:6e:17:d2:e1:86:3e:0f:c6:14:2b:62:d9:a7:49:f1:1d:
        74:61:4a:d3:13:8b:9e:bf:95:a0:59:5c:a0:f8:81:22:9f:70:
        da:50:6f:30:46:01:7c:dd:c6:78:b4:75:40:e5:21:09:b7:a9:
        89:7b:5a:cc:02:e4:d5:5a:fe:ab:aa:73:c7:3c:04:96:2a:e6:
        04:ef:ec:4e:3a:3d:ec:23:89:62:da:7a:31:d8:30:ba:94:03:
        08:d4:c4:80:1a:5b:b1:37:76:35:aa:03:0e:f5:1c:1b:76:60:
        6c:b5:5e:e1:9a:bd:78:25:59:cc:90:e3:dd:d6:17:5d:b8:f4:
        a9:fa:9c:b9:e6:33:47:dd:22:aa:3d:66:63:0b:6b:86:9b:0a:
        38:33:50:11
-----BEGIN CERTIFICATE-----
MIIDIzCCAgugAwIBAgIUJqeosucxy3uTJ6XhvlZpHuNY0bwwDQYJKoZIhvcNAQEF
BQAwOTELMAkGA1UEBhMCQVUxFzAVBgNVBAoMDkRvZGd5IEJyb3RoZXJzMREwDwYD
VQQDDAhEb2RneSBDQTAeFw0yMzExMjcxNDA4MTRaFw0yNDExMjYxNDA4MTRaMBox
GDAWBgNVBAMMD3g1MDktY2hlY2stdGVzdDCCASIwDQYJKoZIhvcNAQEBBQADggEP
ADCCAQoCggEBAJ3qOmAWIz9lbp0ImUQjGYqTusfsxEv3fBbfajl25PC1PVyz/L7K
V97LSXm1gHMYzGNQ815gZMGqK7Pq55XIy9t7fDKZc+n7POhqreJ/cnJxv7WC6tLK
JCkXpPU8uZ8kOBBBPRecjupHAcjkUlO8oz2am/eIqiEGx5P9rzJ92TbvMVitIxmN
9qplz7RrXxseL9KA03fouP6+c9yzYPNLzKYEnXRmrqJzLrEvfSwcMo84oqsPz4Qn
qy5SbkKksvg3qM86aT0OPtdC/ZjChfZLRizp0Wke4YEnU2eAFb/Rmb2ix4M7HGqm
U8Yhhryc3sEitPAAkSGSYpMSL0/wA8iLoNUCAwEAAaNCMEAwHQYDVR0OBBYEFL/Y
aG+586GaPJIuQOf4cqiSiTd+MB8GA1UdIwQYMBaAFLQRM/HX4l73U54gIhBPhga/
H8leMA0GCSqGSIb3DQEBBQUAA4IBAQAFmlcXPRFh5iNrNvySPO9nTQDMW3snH8t0
EFsBmz31NjzSyblOTvmVZsJBGRR+UQusBo/MQFcgIPpNom7FAbmULmH7vUfaJlVD
fNTf0vWpLYjTOx1G+kEO/+a5e604uD03rYBy1BF9ahlLeiNeBW4X0uGGPg/GFCti
2adJ8R10YUrTE4uev5WgWVyg+IEin3DaUG8wRgF83cZ4tHVA5SEJt6mJe1rMAuTV
Wv6rqnPHPASWKuYE7+xOOj3sI4li2nox2DC6lAMI1MSAGluxN3Y1qgMO9RwbdmBs
tV7hmr14JVnMkOPd1hdduPSp+py55jNH3SKqPWZjC2uGmwo4M1AR
-----END CERTIFICATE-----
