Certificate:
    Data:
        Version: 3 (0x2)
        Serial Number: 1234567890 (0x499602d2)
        Signature Algorithm: sha256WithRSAEncryption
        Issuer: CN=ca.example.com
        Validity
            Not Before: Nov 27 14:07:09 2023 GMT
            Not After : Nov 26 14:07:09 2024 GMT
        Subject: CN=test.example.com
        Subject Public Key Info:
            Public Key Algorithm: rsaEncryption
                Public-Key: (2048 bit)
                Modulus:
                    00:9a:a6:2e:bb:be:95:fb:f9:b4:74:98:e5:61:53:
                    cf:41:4c:e8:7a:1d:a2:d0:c1:6e:44:12:17:0d:bc:
                    23:e7:ac:8e:dd:03:d9:4a:24:26:ce:29:2a:f8:24:
                    c6:d5:a2:3a:7d:b6:d9:d0:fd:3b:20:23:df:6d:f2:
                    ad:cf:96:6d:2a:a1:80:3e:bb:73:41:4e:04:51:9a:
                    2e:3e:e1:b9:70:46:43:a1:38:d2:23:6c:e5:61:10:
                    33:a6:e6:16:6a:f1:ad:9e:c0:92:ca:6a:44:2d:9d:
                    c4:b3:62:79:3c:e7:0d:dd:9c:f7:ce:ab:fb:92:32:
                    12:5b:fd:10:87:0d:79:16:42:8e:6d:cd:33:88:a8:
                    8f:24:a4:92:e3:07:3a:bd:b7:56:b9:93:99:f7:30:
                    86:e6:93:b7:ae:de:62:af:ac:85:82:0a:ce:1f:24:
                    6b:d5:f8:37:38:91:08:7e:de:6a:42:6f:af:70:8f:
                    9f:75:8d:7b:87:47:b4:6a:53:f0:d4:25:39:9b:4c:
                    88:2e:c4:a8:01:9b:9b:e2:0d:46:c8:1b:5c:c0:63:
                    00:bc:8c:6f:35:0f:e6:fd:0b:32:7d:39:42:10:8d:
                    5e:1a:72:c4:a3:2a:19:82:a2:e8:2f:27:df:37:d2:
                    54:b6:45:0e:40:18:f0:35:8d:76:3f:48:5e:53:c4:
                    42:9b
                Exponent: 65537 (0x10001)
        X509v3 extensions:
            X509v3 Subject Key Identifier: 
                8E:97:F6:AD:BE:D2:AD:1B:6F:55:28:21:7B:EF:2C:E8:E0:E6:F7:47
            X509v3 Authority Key Identifier: 
                8E:97:F6:AD:BE:D2:AD:1B:6F:55:28:21:7B:EF:2C:E8:E0:E6:F7:47
            X509v3 Basic Constraints: critical
                CA:TRUE
    Signature Algorithm: sha256WithRSAEncryption
    Signature Value:
        46:a2:f7:6a:a9:cd:78:0b:27:3f:f5:08:28:60:35:bf:c2:27:
        4d:d8:9e:01:8c:9d:f6:c3:b8:bb:d9:51:64:91:88:76:ff:c6:
        19:43:ca:9a:de:cd:9e:dd:79:14:f1:6e:28:05:d6:de:59:78:
        ce:72:a7:62:af:59:80:47:ba:75:eb:b1:26:58:8d:f2:11:e3:
        33:49:28:1b:43:55:60:94:ee:85:de:24:1e:16:1f:df:85:21:
        5f:f4:74:74:0d:a6:f1:16:38:3a:7d:1a:24:90:e0:b8:f8:e0:
        87:f7:7a:ae:e5:6a:61:40:bd:56:e9:29:df:ac:38:61:94:91:
        da:95:99:60:f4:3a:4d:40:9f:41:8c:ea:86:37:e8:8b:9f:de:
        45:78:52:a2:0e:38:d8:93:72:02:df:3b:da:f2:05:c7:4a:bc:
        31:a7:a4:bc:a7:e4:0d:e1:ba:d2:76:ea:f8:8c:64:c2:e9:3e:
        6a:89:03:e1:2c:60:86:ed:62:34:a0:60:61:0e:50:35:c5:d6:
        6f:c6:27:7b:de:90:69:ea:59:78:79:4e:1c:a8:e0:9f:b0:67:
        6b:b7:0c:9f:cb:93:97:07:6e:db:72:e5:32:7b:e0:18:8d:27:
        2c:20:98:07:c3:e9:f4:39:ab:c4:13:64:93:ad:14:3a:37:e0:
        53:2b:d3:f7:5f:75:84:c7:1f:c2:79:d4:c0:04:bf:f6:37:f6:
        1b:eb:a4:23:4e:8f:db:a7:00:e8:c9:fb:da:1a:96:78:0d:c5:
        1b:3f:e0:07:13:e1:06:ba:fd:85:d6:3c:ee:00:9b:c4:5c:dc:
        fc:99:1e:27:f4:be:17:54:b6:13:20:99:79:5e:7b:90:eb:6b:
        b8:8b:77:68:70:07:1c:cc:4a:b1:6b:fb:64:a2:24:db:93:f7:
        75:01:3e:35:d0:f3:80:09:31:08:25:2e:ed:f0:8c:36:1d:e6:
        42:dd:90:2d:76:91:c8:5e:6f:c8:5e:7b:8c:7a:ed:8b:4b:b9:
        c0:35:b0:78:81:27:9d:60:e4:8b:84:8d:3f:04:b6:0d:7c:84:
        99:e6:c7:03:f3:62:36:8a:60:d8:78:f3:1a:2d:0d:66:fb:c3:
        92:ef:03:a7:c6:14:26:e4:b3:68:04:ff:6b:7d:bf:26:1e:fb:
        ce:88:5d:fd:77:ae:c6:74:51:0e:f4:7c:6a:4e:2a:02:8c:3c:
        c3:a1:fd:da:28:57:96:9e:45:30:6c:d9:23:63:e0:76:bc:00:
        b7:77:ae:41:0d:3a:5d:6e:08:7b:bd:52:36:be:46:1c:7b:c3:
        25:ec:d9:3f:9d:a3:92:43:02:c3:85:a1:3e:f2:17:2f:3a:ec:
        25:e6:5a:c7:2b:da:02:8d
-----BEGIN CERTIFICATE-----
MIIEBTCCAe2gAwIBAgIESZYC0jANBgkqhkiG9w0BAQsFADAZMRcwFQYDVQQDDA5j
YS5leGFtcGxlLmNvbTAeFw0yMzExMjcxNDA3MDlaFw0yNDExMjYxNDA3MDlaMBsx
GTAXBgNVBAMMEHRlc3QuZXhhbXBsZS5jb20wggEiMA0GCSqGSIb3DQEBAQUAA4IB
DwAwggEKAoIBAQCapi67vpX7+bR0mOVhU89BTOh6HaLQwW5EEhcNvCPnrI7dA9lK
JCbOKSr4JMbVojp9ttnQ/TsgI99t8q3Plm0qoYA+u3NBTgRRmi4+4blwRkOhONIj
bOVhEDOm5hZq8a2ewJLKakQtncSzYnk85w3dnPfOq/uSMhJb/RCHDXkWQo5tzTOI
qI8kpJLjBzq9t1a5k5n3MIbmk7eu3mKvrIWCCs4fJGvV+Dc4kQh+3mpCb69wj591
jXuHR7RqU/DUJTmbTIguxKgBm5viDUbIG1zAYwC8jG81D+b9CzJ9OUIQjV4acsSj
KhmCougvJ9830lS2RQ5AGPA1jXY/SF5TxEKbAgMBAAGjUzBRMB0GA1UdDgQWBBSO
l/atvtKtG29VKCF77yzo4Ob3RzAfBgNVHSMEGDAWgBSOl/atvtKtG29VKCF77yzo
4Ob3RzAPBgNVHRMBAf8EBTADAQH/MA0GCSqGSIb3DQEBCwUAA4ICAQBGovdqqc14
Cyc/9QgoYDW/widN2J4BjJ32w7i72VFkkYh2/8YZQ8qa3s2e3XkU8W4oBdbeWXjO
cqdir1mAR7p167EmWI3yEeMzSSgbQ1VglO6F3iQeFh/fhSFf9HR0DabxFjg6fRok
kOC4+OCH93qu5WphQL1W6SnfrDhhlJHalZlg9DpNQJ9BjOqGN+iLn95FeFKiDjjY
k3IC3zva8gXHSrwxp6S8p+QN4brSdur4jGTC6T5qiQPhLGCG7WI0oGBhDlA1xdZv
xid73pBp6ll4eU4cqOCfsGdrtwyfy5OXB27bcuUye+AYjScsIJgHw+n0OavEE2ST
rRQ6N+BTK9P3X3WExx/CedTABL/2N/Yb66QjTo/bpwDoyfvaGpZ4DcUbP+AHE+EG
uv2F1jzuAJvEXNz8mR4n9L4XVLYTIJl5XnuQ62u4i3docAcczEqxa/tkoiTbk/d1
AT410POACTEIJS7t8Iw2HeZC3ZAtdpHIXm/IXnuMeu2LS7nANbB4gSedYOSLhI0/
BLYNfISZ5scD82I2imDYePMaLQ1m+8OS7wOnxhQm5LNoBP9rfb8mHvvOiF39d67G
dFEO9HxqTioCjDzDof3aKFeWnkUwbNkjY+B2vAC3d65BDTpdbgh7vVI2vkYce8Ml
7Nk/naOSQwLDhaE+8hcvOuwl5lrHK9oCjQ==
-----END CERTIFICATE-----
