Certificate:
    Data:
        Version: 3 (0x2)
        Serial Number:
            2c:ff:42:cf:0a:86:ba:52:79:4e:a0:a8:f9:4f:2b:c6:78:b1:d9:de
        Signature Algorithm: sha256WithRSAEncryption
        Issuer: CN=ca.example.com
        Validity
            Not Before: Nov 27 14:07:10 2023 GMT
            Not After : Dec 27 14:07:10 2023 GMT
        Subject: CN=b.example.com
        Subject Public Key Info:
            Public Key Algorithm: rsaEncryption
                Public-Key: (4096 bit)
                Modulus:
                    00:b8:3f:f0:08:53:1d:20:c8:31:9e:ca:89:6e:40:
                    c9:9a:5e:6c:07:b7:06:31:96:45:56:df:ea:da:51:
                    2e:af:aa:b7:5b:b2:8d:04:42:57:2f:c1:f2:48:2f:
                    c8:96:65:17:38:c3:32:26:83:7a:64:11:ca:d9:e7:
                    b9:28:17:ea:b1:1e:ae:7e:fa:6c:41:2d:36:97:ec:
                    c8:24:ca:04:13:b9:4e:91:87:cc:e8:ca:65:b0:4b:
                    07:28:ec:8b:3d:87:98:b1:af:74:81:69:34:94:53:
                    36:78:e1:c2:28:72:db:94:9b:d2:32:0c:a7:f3:79:
                    54:93:6f:a1:2e:1d:7e:33:3a:89:b6:56:c1:f7:b2:
                    7e:e4:62:d5:59:87:4d:1d:f1:3f:4a:b5:1e:35:f5:
                    a9:e6:98:38:83:8e:d9:31:d6:27:00:f4:51:ef:a9:
                    7f:e8:23:e9:1b:d5:97:1a:46:82:5a:82:6b:23:f7:
                    db:0e:1c:b3:83:59:0a:cf:91:cb:e6:b0:e3:b2:5c:
                    47:c8:3b:34:4d:36:65:55:9e:c9:61:79:22:01:d7:
                    52:9f:62:75:9c:18:23:2c:8e:f1:2e:89:48:af:a5:
                    e9:74:5b:d9:7d:d0:0d:aa:31:e2:8c:7f:55:9b:c9:
                    fb:84:07:72:1a:25:22:48:11:c9:b5:47:3e:0a:cd:
                    de:ae:8c:cb:66:01:97:dd:e0:ff:8e:e3:5d:23:89:
                    c5:b4:3a:b5:43:0c:da:f1:49:59:9f:d4:31:58:75:
                    a4:eb:55:63:82:87:76:66:68:d3:a0:84:ab:a8:4a:
                    15:fc:d0:7e:a3:ba:98:66:89:f3:26:fc:76:32:2a:
                    5d:6a:57:f1:9c:2b:67:64:fb:16:7d:dc:c5:a8:f1:
                    d3:fa:54:0f:1a:6f:ed:8b:f3:cb:db:24:03:f0:bc:
                    67:67:e7:63:96:57:ee:20:de:74:da:59:62:13:a7:
                    da:6c:6a:6a:5c:32:eb:06:0c:fb:d1:77:57:c6:4a:
                    f6:20:db:19:71:4c:32:3c:9e:bf:51:73:87:bd:6d:
                    6c:23:54:8e:9b:14:21:0a:5a:2e:08:bc:96:3c:22:
                    7c:4c:e8:08:5c:84:ec:83:86:e7:88:df:08:9f:dc:
                    37:25:4b:f9:da:49:12:62:47:85:fc:c8:45:f6:1b:
                    92:28:60:d8:32:d0:f7:9c:01:dd:8b:c1:57:62:a6:
                    22:bb:68:a0:f9:0b:c0:a1:6d:96:c3:58:f2:f7:1f:
                    af:b8:4b:a6:a4:45:e8:e6:b2:47:8c:00:a0:47:f1:
                    fc:f3:e0:22:d0:62:18:a4:b8:e4:a1:3b:bb:13:1c:
                    66:d0:61:cd:75:29:fc:7a:05:2a:ab:7c:98:5f:b4:
                    02:c1:c1
                Exponent: 65537 (0x10001)
        X509v3 extensions:
            X509v3 Subject Key Identifier: 
                A4:EE:63:A5:B0:12:38:53:CC:C9:86:30:C9:1C:18:D6:EC:3A:22:FD
            X509v3 Authority Key Identifier: 
                4C:86:49:6F:A3:E8:C8:C0:1E:1E:60:05:63:8F:09:D2:AC:77:A0:A5
    Signature Algorithm: sha256WithRSAEncryption
    Signature Value:
        1f:4e:df:bd:4f:47:09:fc:c9:88:ca:40:c7:7c:39:80:be:f7:
        e6:92:fe:a8:ea:ea:60:a7:d7:4d:83:e6:fe:c2:34:f0:be:db:
        e3:ea:44:30:f5:0c:44:b5:b0:4d:d5:94:8f:46:c3:7c:d4:14:
        00:a7:72:37:31:54:78:29:48:54:73:4e:d5:2d:d8:69:89:bb:
        12:04:b7:81:f4:b7:82:e8:ba:4b:92:df:f2:0c:f1:41:61:d3:
        b7:09:5f:5e:94:2d:5e:5d:af:4b:b4:03:33:87:18:b1:55:b6:
        6b:57:39:de:db:9e:93:f5:e5:6a:f7:71:ba:3e:75:c7:e4:1a:
        d7:d4:7a:13:bf:ec:b0:b4:ba:5d:2e:31:2b:3f:ff:d4:15:6b:
        0c:fa:7e:67:bf:24:57:16:0c:7a:16:61:fa:d0:d8:d3:b5:ed:
        ad:ec:b4:9b:f8:5b:c1:97:ae:f3:9c:a9:b5:36:cd:9d:28:d3:
        41:cc:39:fc:4a:9f:42:12:bb:6a:82:17:df:89:fc:c5:94:ac:
        64:ff:5e:a8:7e:8a:9b:16:9e:99:84:70:34:6f:a2:0c:05:b7:
        4f:26:64:ca:3e:84:a5:f5:1b:63:7f:d1:26:6b:a2:08:36:5b:
        6f:af:2c:76:a9:46:e1:aa:e4:d7:a6:46:dd:2e:bf:11:8d:15:
        9e:34:0d:6c:65:95:b7:5d:08:d1:8f:8c:b7:ef:4d:db:f1:a5:
        bf:3c:7c:ce:48:12:7c:5b:2b:c1:16:8d:31:cd:a6:7c:fe:41:
        91:cb:56:db:1c:ac:a1:b7:8f:8f:0e:0a:82:0e:17:f9:81:a9:
        f1:e5:fc:ba:9e:8b:6b:55:a0:4e:6e:a4:ef:9f:33:5e:82:1b:
        8f:df:ec:9b:17:e6:5f:a2:e4:5c:f2:4e:93:ce:04:3f:df:67:
        aa:09:10:b5:81:28:4c:64:c5:02:58:a9:20:3a:00:a6:a5:06:
        32:c0:2c:56:7e:50:32:03:42:41:43:b5:b5:1a:cd:68:e2:9c:
        90:14:e5:8f:82:51:6b:b2:cc:64:47:f9:01:59:19:83:37:60:
        25:9e:8e:87:e0:1e:e2:90:79:10:e7:cb:cd:e6:30:87:03:19:
        e3:60:2b:e6:7d:68:32:47:32:e6:11:b1:7c:ee:d5:71:bb:cf:
        a6:1f:06:f3:99:b5:6d:7d:60:bc:d6:f1:3d:0a:a5:d9:05:ea:
        55:89:b7:7c:aa:1c:b5:18:dd:26:bb:e9:e1:a0:c9:b3:3e:51:
        69:c5:e8:9a:54:88:ce:90:c2:5c:93:50:ad:88:33:5a:58:8f:
        7c:65:ec:62:e8:ee:8d:84:be:96:a9:29:68:e5:44:bc:0b:8c:
        9d:59:99:6e:0c:34:c1:9c
-----BEGIN CERTIFICATE-----
MIIFATCCAumgAwIBAgIULP9CzwqGulJ5TqCo+U8rxnix2d4wDQYJKoZIhvcNAQEL
BQAwGTEXMBUGA1UEAwwOY2EuZXhhbXBsZS5jb20wHhcNMjMxMTI3MTQwNzEwWhcN
MjMxMjI3MTQwNzEwWjAYMRYwFAYDVQQDDA1iLmV4YW1wbGUuY29tMIICIjANBgkq
hkiG9w0BAQEFAAOCAg8AMIICCgKCAgEAuD/wCFMdIMgxnsqJbkDJml5sB7cGMZZF
Vt/q2lEur6q3W7KNBEJXL8HySC/IlmUXOMMyJoN6ZBHK2ee5KBfqsR6ufvpsQS02
l+zIJMoEE7lOkYfM6MplsEsHKOyLPYeYsa90gWk0lFM2eOHCKHLblJvSMgyn83lU
k2+hLh1+MzqJtlbB97J+5GLVWYdNHfE/SrUeNfWp5pg4g47ZMdYnAPRR76l/6CPp
G9WXGkaCWoJrI/fbDhyzg1kKz5HL5rDjslxHyDs0TTZlVZ7JYXkiAddSn2J1nBgj
LI7xLolIr6XpdFvZfdANqjHijH9Vm8n7hAdyGiUiSBHJtUc+Cs3erozLZgGX3eD/
juNdI4nFtDq1Qwza8UlZn9QxWHWk61Vjgod2ZmjToISrqEoV/NB+o7qYZonzJvx2
MipdalfxnCtnZPsWfdzFqPHT+lQPGm/ti/PL2yQD8LxnZ+djllfuIN502lliE6fa
bGpqXDLrBgz70XdXxkr2INsZcUwyPJ6/UXOHvW1sI1SOmxQhClouCLyWPCJ8TOgI
XITsg4bniN8In9w3JUv52kkSYkeF/MhF9huSKGDYMtD3nAHdi8FXYqYiu2ig+QvA
oW2Ww1jy9x+vuEumpEXo5rJHjACgR/H88+Ai0GIYpLjkoTu7Exxm0GHNdSn8egUq
q3yYX7QCwcECAwEAAaNCMEAwHQYDVR0OBBYEFKTuY6WwEjhTzMmGMMkcGNbsOiL9
MB8GA1UdIwQYMBaAFEyGSW+j6MjAHh5gBWOPCdKsd6ClMA0GCSqGSIb3DQEBCwUA
A4ICAQAfTt+9T0cJ/MmIykDHfDmAvvfmkv6o6upgp9dNg+b+wjTwvtvj6kQw9QxE
tbBN1ZSPRsN81BQAp3I3MVR4KUhUc07VLdhpibsSBLeB9LeC6LpLkt/yDPFBYdO3
CV9elC1eXa9LtAMzhxixVbZrVzne256T9eVq93G6PnXH5BrX1HoTv+ywtLpdLjEr
P//UFWsM+n5nvyRXFgx6FmH60NjTte2t7LSb+FvBl67znKm1Ns2dKNNBzDn8Sp9C
ErtqghffifzFlKxk/16ofoqbFp6ZhHA0b6IMBbdPJmTKPoSl9Rtjf9Ema6IINltv
ryx2qUbhquTXpkbdLr8RjRWeNA1sZZW3XQjRj4y3703b8aW/PHzOSBJ8WyvBFo0x
zaZ8/kGRy1bbHKyht4+PDgqCDhf5ganx5fy6notrVaBObqTvnzNeghuP3+ybF+Zf
ouRc8k6TzgQ/32eqCRC1gShMZMUCWKkgOgCmpQYywCxWflAyA0JBQ7W1Gs1o4pyQ
FOWPglFrssxkR/kBWRmDN2Alno6H4B7ikHkQ58vN5jCHAxnjYCvmfWgyRzLmEbF8
7tVxu8+mHwbzmbVtfWC81vE9CqXZBepVibd8qhy1GN0mu+nhoMmzPlFpxeiaVIjO
kMJck1CtiDNaWI98Zexi6O6NhL6WqSlo5US8C4ydWZluDDTBnA==
-----END CERTIFICATE-----
