Certificate:
    Data:
        Version: 3 (0x2)
        Serial Number:
            70:20:12:ad:d7:02:86:09:61:94:1e:fa:4d:da:bb:52:d4:b0:71:71
        Signature Algorithm: sha1WithRSAEncryption
        Issuer: C=AU, O=Dodgy Brothers, CN=Dodgy CA
        Validity
            Not Before: Nov 27 14:08:14 2023 GMT
            Not After : Nov 26 14:08:14 2026 GMT
        Subject: C=AU, O=Dodgy Brothers, CN=Dodgy CA
        Subject Public Key Info:
            Public Key Algorithm: rsaEncryption
                Public-Key: (2048 bit)
                Modulus:
                    00:96:9d:a4:3d:00:4b:1c:5f:c6:cb:dd:8f:d2:31:
                    b2:88:15:cc:c4:86:2c:5c:e2:69:8b:84:f4:a7:a3:
                    53:df:91:e3:bf:51:89:fb:f0:7c:10:0d:3b:ad:ac:
                    35:62:75:f5:7f:ff:f4:6e:54:8f:05:a6:92:23:b3:
                    9f:59:39:d0:39:18:b0:10:40:de:62:73:8a:4e:b0:
                    8e:df:dc:e7:c9:41:22:54:84:80:08:29:bc:35:3c:
                    86:df:30:de:dd:b4:24:ff:7e:62:a5:c0:7a:e8:2a:
                    16:3f:d6:97:da:c5:42:db:2f:69:64:91:cb:08:d7:
                    56:5a:79:7f:1b:84:41:e9:4d:9d:77:09:10:a8:6c:
                    29:33:44:c6:c0:54:65:e6:e8:e3:f2:75:05:6a:64:
                    95:6c:c0:f4:fd:25:61:6e:48:36:f0:c0:03:07:05:
                    d6:7c:e5:11:fd:18:e8:4a:2d:d3:72:0c:37:28:36:
                    31:31:38:85:e8:71:8d:d8:02:49:c8:bc:19:89:c5:
                    8a:b1:3f:a2:35:ea:aa:90:1c:64:68:7b:af:67:6a:
                    5a:06:54:0f:50:e1:f9:b4:f6:be:3a:d4:ce:3f:1e:
                    4c:7d:c6:77:32:3e:a2:58:ed:db:dd:74:d8:92:14:
                    6a:a8:f7:cb:34:58:91:a8:7c:14:b1:7d:08:b3:4d:
                    b1:47
                Exponent: 65537 (0x10001)
        X509v3 extensions:
            X509v3 Subject Key Identifier: 
                B4:11:33:F1:D7:E2:5E:F7:53:9E:20:22:10:4F:86:06:BF:1F:C9:5E
            X509v3 Authority Key Identifier: 
                keyid:B4:11:33:F1:D7:E2:5E:F7:53:9E:20:22:10:4F:86:06:BF:1F:C9:5E
                DirName:/C=AU/O=Dodgy Brothers/CN=Dodgy CA
                serial:70:20:12:AD:D7:02:86:09:61:94:1E:FA:4D:DA:BB:52:D4:B0:71:71
            X509v3 Basic Constraints: critical
                CA:TRUE, pathlen:1
            X509v3 Key Usage: 
                Certificate Sign, CRL Sign
            X509v3 Issuer Alternative Name: 
                <EMPTY>

    Signature Algorithm: sha1WithRSAEncryption
    Signature Value:
        1c:02:5d:be:9f:ea:3f:1e:78:72:28:b2:90:97:6d:ff:5f:e3:
        f0:b7:5c:4c:6f:e2:81:e2:d2:21:a8:83:25:b2:dc:70:7a:b9:
        67:4e:a8:25:bf:d1:3a:50:53:d6:6b:f7:b4:30:9b:33:f2:b3:
        f4:ee:b8:68:b6:02:c9:cb:54:11:dd:4f:ac:b2:67:c5:68:e9:
        b9:21:c4:da:5c:ae:03:e8:ee:c8:29:88:29:02:9f:40:fd:6a:
        ad:75:2b:bc:7b:23:53:63:46:eb:60:d9:86:88:02:67:c1:e9:
        67:2a:03:69:c4:98:87:00:54:93:36:2e:f0:25:64:be:70:b2:
        04:86:de:9c:11:e6:c3:71:72:c3:fc:1a:69:55:ee:d9:c2:29:
        9c:03:1e:2c:67:81:91:ac:0a:8c:a9:07:db:f1:e4:ea:7d:57:
        27:4d:9c:3c:c8:66:e5:1b:cd:3e:b6:5f:00:06:6f:26:57:23:
        e6:54:a9:b7:41:22:ea:a9:15:91:31:86:51:1c:8d:53:50:6c:
        b8:76:ed:c8:e3:05:98:71:7d:00:d8:70:4a:ac:5c:63:ae:c5:
        c5:fc:30:b2:40:5e:29:bb:62:ad:77:50:15:68:fd:3e:87:f8:
        c7:60:fa:4a:01:82:8c:b0:c1:71:dc:49:9c:e6:e1:2d:bf:14:
        dc:03:74:7a
-----BEGIN CERTIFICATE-----
MIIDxTCCAq2gAwIBAgIUcCASrdcChglhlB76Tdq7UtSwcXEwDQYJKoZIhvcNAQEF
BQAwOTELMAkGA1UEBhMCQVUxFzAVBgNVBAoMDkRvZGd5IEJyb3RoZXJzMREwDwYD
VQQDDAhEb2RneSBDQTAeFw0yMzExMjcxNDA4MTRaFw0yNjExMjYxNDA4MTRaMDkx
CzAJBgNVBAYTAkFVMRcwFQYDVQQKDA5Eb2RneSBCcm90aGVyczERMA8GA1UEAwwI
RG9kZ3kgQ0EwggEiMA0GCSqGSIb3DQEBAQUAA4IBDwAwggEKAoIBAQCWnaQ9AEsc
X8bL3Y/SMbKIFczEhixc4mmLhPSno1PfkeO/UYn78HwQDTutrDVidfV///RuVI8F
ppIjs59ZOdA5GLAQQN5ic4pOsI7f3OfJQSJUhIAIKbw1PIbfMN7dtCT/fmKlwHro
KhY/1pfaxULbL2lkkcsI11ZaeX8bhEHpTZ13CRCobCkzRMbAVGXm6OPydQVqZJVs
wPT9JWFuSDbwwAMHBdZ85RH9GOhKLdNyDDcoNjExOIXocY3YAknIvBmJxYqxP6I1
6qqQHGRoe69naloGVA9Q4fm09r461M4/Hkx9xncyPqJY7dvddNiSFGqo98s0WJGo
fBSxfQizTbFHAgMBAAGjgcQwgcEwHQYDVR0OBBYEFLQRM/HX4l73U54gIhBPhga/
H8leMHQGA1UdIwRtMGuAFLQRM/HX4l73U54gIhBPhga/H8leoT2kOzA5MQswCQYD
VQQGEwJBVTEXMBUGA1UECgwORG9kZ3kgQnJvdGhlcnMxETAPBgNVBAMMCERvZGd5
IENBghRwIBKt1wKGCWGUHvpN2rtS1LBxcTASBgNVHRMBAf8ECDAGAQH/AgEBMAsG
A1UdDwQEAwIBBjAJBgNVHRIEAjAAMA0GCSqGSIb3DQEBBQUAA4IBAQAcAl2+n+o/
HnhyKLKQl23/X+Pwt1xMb+KB4tIhqIMlstxwerlnTqglv9E6UFPWa/e0MJsz8rP0
7rhotgLJy1QR3U+ssmfFaOm5IcTaXK4D6O7IKYgpAp9A/WqtdSu8eyNTY0brYNmG
iAJnwelnKgNpxJiHAFSTNi7wJWS+cLIEht6cEebDcXLD/BppVe7ZwimcAx4sZ4GR
rAqMqQfb8eTqfVcnTZw8yGblG80+tl8ABm8mVyPmVKm3QSLqqRWRMYZRHI1TUGy4
du3I4wWYcX0A2HBKrFxjrsXF/DCyQF4pu2Ktd1AVaP0+h/jHYPpKAYKMsMFx3Emc
5uEtvxTcA3R6
-----END CERTIFICATE-----
